; Listing generated by Microsoft (R) Optimizing Compiler Version 19.29.30147.0 

include listing.inc

INCLUDELIB OLDNAMES

PUBLIC	??_C@_0L@CLNGBNDK@SYSTEMROOT@			; `string'
PUBLIC	??_C@_01KICIPPFI@?2@				; `string'
PUBLIC	??_C@_0N@BDPNIACE@?2SystemRoot?2@		; `string'
PUBLIC	??_C@_0CA@IOOJHFBM@imported?5module?5?$FL?$CFs?$FN?5not?5found?6@ ; `string'
PUBLIC	??_C@_0CD@IMFAMML@?$FL?9?$FN?5failed?5to?5resolve?5import?5?$FL?$CF@ ; `string'
PUBLIC	??_C@_0BL@IJFHCNGM@?$FL?$CL?$FN?5resolved?5?$FL?$CFi?$FN?5imports?6@ ; `string'
EXTRN	__imp_getenv:PROC
;	COMDAT ??_C@_0BL@IJFHCNGM@?$FL?$CL?$FN?5resolved?5?$FL?$CFi?$FN?5imports?6@
CONST	SEGMENT
??_C@_0BL@IJFHCNGM@?$FL?$CL?$FN?5resolved?5?$FL?$CFi?$FN?5imports?6@ DB '['
	DB	'+] resolved [%i] imports', 0aH, 00H		; `string'
CONST	ENDS
;	COMDAT ??_C@_0CD@IMFAMML@?$FL?9?$FN?5failed?5to?5resolve?5import?5?$FL?$CF@
CONST	SEGMENT
??_C@_0CD@IMFAMML@?$FL?9?$FN?5failed?5to?5resolve?5import?5?$FL?$CF@ DB '['
	DB	'-] failed to resolve import [%s]', 0aH, 00H	; `string'
CONST	ENDS
;	COMDAT ??_C@_0CA@IOOJHFBM@imported?5module?5?$FL?$CFs?$FN?5not?5found?6@
CONST	SEGMENT
??_C@_0CA@IOOJHFBM@imported?5module?5?$FL?$CFs?$FN?5not?5found?6@ DB 'imp'
	DB	'orted module [%s] not found', 0aH, 00H	; `string'
CONST	ENDS
;	COMDAT ??_C@_0N@BDPNIACE@?2SystemRoot?2@
CONST	SEGMENT
??_C@_0N@BDPNIACE@?2SystemRoot?2@ DB '\SystemRoot\', 00H ; `string'
CONST	ENDS
;	COMDAT ??_C@_01KICIPPFI@?2@
CONST	SEGMENT
??_C@_01KICIPPFI@?2@ DB '\', 00H			; `string'
CONST	ENDS
;	COMDAT ??_C@_0L@CLNGBNDK@SYSTEMROOT@
CONST	SEGMENT
??_C@_0L@CLNGBNDK@SYSTEMROOT@ DB 'SYSTEMROOT', 00H	; `string'
PUBLIC	??$forward@PEAUImportFunctionInfo@portable_executable@@@std@@YA$$QEAPEAUImportFunctionInfo@portable_executable@@AEAPEAU12@@Z ; std::forward<portable_executable::ImportFunctionInfo *>
PUBLIC	??0?$_Vector_val@U?$_Simple_types@UImportFunctionInfo@portable_executable@@@std@@@std@@QEAA@PEAUImportFunctionInfo@portable_executable@@00@Z ; std::_Vector_val<std::_Simple_types<portable_executable::ImportFunctionInfo> >::_Vector_val<std::_Simple_types<portable_executable::ImportFunctionInfo> >
PUBLIC	??$?0V?$allocator@UImportFunctionInfo@portable_executable@@@std@@PEAUImportFunctionInfo@portable_executable@@PEAU23@PEAU23@@?$_Compressed_pair@V?$allocator@UImportFunctionInfo@portable_executable@@@std@@V?$_Vector_val@U?$_Simple_types@UImportFunctionInfo@portable_executable@@@std@@@2@$00@std@@QEAA@U_One_then_variadic_args_t@1@$$QEAV?$allocator@UImportFunctionInfo@portable_executable@@@1@$$QEAPEAUImportFunctionInfo@portable_executable@@22@Z ; std::_Compressed_pair<std::allocator<portable_executable::ImportFunctionInfo>,std::_Vector_val<std::_Simple_types<portable_executable::ImportFunctionInfo> >,1>::_Compressed_pair<std::allocator<portable_executable::ImportFunctionInfo>,std::_Vector_val<std::_Simple_types<portable_executable::ImportFunctionInfo> >,1><std::allocator<portable_executable::ImportFunctionInfo>,portable_executable::ImportFunctionInfo *,portable_executable::ImportFunctionInfo *,portable_executable::ImportFunctionInfo *>
PUBLIC	??$exchange@PEAUImportFunctionInfo@portable_executable@@$$T@std@@YAPEAUImportFunctionInfo@portable_executable@@AEAPEAU12@$$QEA$$T@Z ; std::exchange<portable_executable::ImportFunctionInfo *,std::nullptr_t>
PUBLIC	??$move@AEAV?$allocator@UImportFunctionInfo@portable_executable@@@std@@@std@@YA$$QEAV?$allocator@UImportFunctionInfo@portable_executable@@@0@AEAV10@@Z ; std::move<std::allocator<portable_executable::ImportFunctionInfo> &>
PUBLIC	??$construct@UImportFunctionInfo@portable_executable@@AEAU12@@?$_Default_allocator_traits@V?$allocator@UImportFunctionInfo@portable_executable@@@std@@@std@@SAXAEAV?$allocator@UImportFunctionInfo@portable_executable@@@1@QEAUImportFunctionInfo@portable_executable@@AEAU34@@Z ; std::_Default_allocator_traits<std::allocator<portable_executable::ImportFunctionInfo> >::construct<portable_executable::ImportFunctionInfo,portable_executable::ImportFunctionInfo &>
PUBLIC	??$forward@AEAUImportFunctionInfo@portable_executable@@@std@@YAAEAUImportFunctionInfo@portable_executable@@AEAU12@@Z ; std::forward<portable_executable::ImportFunctionInfo &>
PUBLIC	??0?$vector@UImportFunctionInfo@portable_executable@@V?$allocator@UImportFunctionInfo@portable_executable@@@std@@@std@@QEAA@$$QEAV01@@Z ; std::vector<portable_executable::ImportFunctionInfo,std::allocator<portable_executable::ImportFunctionInfo> >::vector<portable_executable::ImportFunctionInfo,std::allocator<portable_executable::ImportFunctionInfo> >
PUBLIC	??0ImportFunctionInfo@portable_executable@@QEAA@$$QEAU01@@Z ; portable_executable::ImportFunctionInfo::ImportFunctionInfo
PUBLIC	??0ImportInfo@portable_executable@@QEAA@$$QEAU01@@Z ; portable_executable::ImportInfo::ImportInfo
PUBLIC	??$_Emplace_back@AEAUImportFunctionInfo@portable_executable@@@?$_Uninitialized_backout_al@V?$allocator@UImportFunctionInfo@portable_executable@@@std@@@std@@QEAAXAEAUImportFunctionInfo@portable_executable@@@Z ; std::_Uninitialized_backout_al<std::allocator<portable_executable::ImportFunctionInfo> >::_Emplace_back<portable_executable::ImportFunctionInfo &>
PUBLIC	??$construct@UImportFunctionInfo@portable_executable@@U12@@?$_Default_allocator_traits@V?$allocator@UImportFunctionInfo@portable_executable@@@std@@@std@@SAXAEAV?$allocator@UImportFunctionInfo@portable_executable@@@1@QEAUImportFunctionInfo@portable_executable@@$$QEAU34@@Z ; std::_Default_allocator_traits<std::allocator<portable_executable::ImportFunctionInfo> >::construct<portable_executable::ImportFunctionInfo,portable_executable::ImportFunctionInfo>
PUBLIC	??$forward@UImportFunctionInfo@portable_executable@@@std@@YA$$QEAUImportFunctionInfo@portable_executable@@AEAU12@@Z ; std::forward<portable_executable::ImportFunctionInfo>
PUBLIC	??$construct@URelocInfo@portable_executable@@U12@@?$_Default_allocator_traits@V?$allocator@URelocInfo@portable_executable@@@std@@@std@@SAXAEAV?$allocator@URelocInfo@portable_executable@@@1@QEAURelocInfo@portable_executable@@$$QEAU34@@Z ; std::_Default_allocator_traits<std::allocator<portable_executable::RelocInfo> >::construct<portable_executable::RelocInfo,portable_executable::RelocInfo>
PUBLIC	??$forward@URelocInfo@portable_executable@@@std@@YA$$QEAURelocInfo@portable_executable@@AEAU12@@Z ; std::forward<portable_executable::RelocInfo>
PUBLIC	??$construct@UImportInfo@portable_executable@@U12@@?$_Default_allocator_traits@V?$allocator@UImportInfo@portable_executable@@@std@@@std@@SAXAEAV?$allocator@UImportInfo@portable_executable@@@1@QEAUImportInfo@portable_executable@@$$QEAU34@@Z ; std::_Default_allocator_traits<std::allocator<portable_executable::ImportInfo> >::construct<portable_executable::ImportInfo,portable_executable::ImportInfo>
PUBLIC	??$forward@UImportInfo@portable_executable@@@std@@YA$$QEAUImportInfo@portable_executable@@AEAU12@@Z ; std::forward<portable_executable::ImportInfo>
PUBLIC	??$_Uninitialized_copy@PEAUImportFunctionInfo@portable_executable@@V?$allocator@UImportFunctionInfo@portable_executable@@@std@@@std@@YAPEAUImportFunctionInfo@portable_executable@@QEAU12@0PEAU12@AEAV?$allocator@UImportFunctionInfo@portable_executable@@@0@@Z ; std::_Uninitialized_copy<portable_executable::ImportFunctionInfo *,std::allocator<portable_executable::ImportFunctionInfo> >
PUBLIC	??$forward@V?$allocator@UImportFunctionInfo@portable_executable@@@std@@@std@@YA$$QEAV?$allocator@UImportFunctionInfo@portable_executable@@@0@AEAV10@@Z ; std::forward<std::allocator<portable_executable::ImportFunctionInfo> >
PUBLIC	??$_Emplace_back@UImportFunctionInfo@portable_executable@@@?$_Uninitialized_backout_al@V?$allocator@UImportFunctionInfo@portable_executable@@@std@@@std@@QEAAX$$QEAUImportFunctionInfo@portable_executable@@@Z ; std::_Uninitialized_backout_al<std::allocator<portable_executable::ImportFunctionInfo> >::_Emplace_back<portable_executable::ImportFunctionInfo>
PUBLIC	??$move@AEAUImportFunctionInfo@portable_executable@@@std@@YA$$QEAUImportFunctionInfo@portable_executable@@AEAU12@@Z ; std::move<portable_executable::ImportFunctionInfo &>
PUBLIC	??$_Emplace_back@URelocInfo@portable_executable@@@?$_Uninitialized_backout_al@V?$allocator@URelocInfo@portable_executable@@@std@@@std@@QEAAX$$QEAURelocInfo@portable_executable@@@Z ; std::_Uninitialized_backout_al<std::allocator<portable_executable::RelocInfo> >::_Emplace_back<portable_executable::RelocInfo>
PUBLIC	??$_To_address@PEAURelocInfo@portable_executable@@@std@@YA?A_PAEBQEAURelocInfo@portable_executable@@@Z ; std::_To_address<portable_executable::RelocInfo *>
PUBLIC	??$_Copy_memmove@PEAURelocInfo@portable_executable@@PEAU12@@std@@YAPEAURelocInfo@portable_executable@@PEAU12@00@Z ; std::_Copy_memmove<portable_executable::RelocInfo *,portable_executable::RelocInfo *>
PUBLIC	??$move@AEAURelocInfo@portable_executable@@@std@@YA$$QEAURelocInfo@portable_executable@@AEAU12@@Z ; std::move<portable_executable::RelocInfo &>
PUBLIC	??$_Emplace_back@UImportInfo@portable_executable@@@?$_Uninitialized_backout_al@V?$allocator@UImportInfo@portable_executable@@@std@@@std@@QEAAX$$QEAUImportInfo@portable_executable@@@Z ; std::_Uninitialized_backout_al<std::allocator<portable_executable::ImportInfo> >::_Emplace_back<portable_executable::ImportInfo>
PUBLIC	??$move@AEAUImportInfo@portable_executable@@@std@@YA$$QEAUImportInfo@portable_executable@@AEAU12@@Z ; std::move<portable_executable::ImportInfo &>
PUBLIC	??0?$_Uninitialized_backout_al@V?$allocator@UImportInfo@portable_executable@@@std@@@std@@QEAA@PEAUImportInfo@portable_executable@@AEAV?$allocator@UImportInfo@portable_executable@@@1@@Z ; std::_Uninitialized_backout_al<std::allocator<portable_executable::ImportInfo> >::_Uninitialized_backout_al<std::allocator<portable_executable::ImportInfo> >
PUBLIC	??1?$_Uninitialized_backout_al@V?$allocator@UImportInfo@portable_executable@@@std@@@std@@QEAA@XZ ; std::_Uninitialized_backout_al<std::allocator<portable_executable::ImportInfo> >::~_Uninitialized_backout_al<std::allocator<portable_executable::ImportInfo> >
PUBLIC	?_Release@?$_Uninitialized_backout_al@V?$allocator@UImportInfo@portable_executable@@@std@@@std@@QEAAPEAUImportInfo@portable_executable@@XZ ; std::_Uninitialized_backout_al<std::allocator<portable_executable::ImportInfo> >::_Release
PUBLIC	??0?$_Uninitialized_backout_al@V?$allocator@URelocInfo@portable_executable@@@std@@@std@@QEAA@PEAURelocInfo@portable_executable@@AEAV?$allocator@URelocInfo@portable_executable@@@1@@Z ; std::_Uninitialized_backout_al<std::allocator<portable_executable::RelocInfo> >::_Uninitialized_backout_al<std::allocator<portable_executable::RelocInfo> >
PUBLIC	??1?$_Uninitialized_backout_al@V?$allocator@URelocInfo@portable_executable@@@std@@@std@@QEAA@XZ ; std::_Uninitialized_backout_al<std::allocator<portable_executable::RelocInfo> >::~_Uninitialized_backout_al<std::allocator<portable_executable::RelocInfo> >
PUBLIC	?_Release@?$_Uninitialized_backout_al@V?$allocator@URelocInfo@portable_executable@@@std@@@std@@QEAAPEAURelocInfo@portable_executable@@XZ ; std::_Uninitialized_backout_al<std::allocator<portable_executable::RelocInfo> >::_Release
PUBLIC	??0?$_Uninitialized_backout_al@V?$allocator@UImportFunctionInfo@portable_executable@@@std@@@std@@QEAA@PEAUImportFunctionInfo@portable_executable@@AEAV?$allocator@UImportFunctionInfo@portable_executable@@@1@@Z ; std::_Uninitialized_backout_al<std::allocator<portable_executable::ImportFunctionInfo> >::_Uninitialized_backout_al<std::allocator<portable_executable::ImportFunctionInfo> >
PUBLIC	??1?$_Uninitialized_backout_al@V?$allocator@UImportFunctionInfo@portable_executable@@@std@@@std@@QEAA@XZ ; std::_Uninitialized_backout_al<std::allocator<portable_executable::ImportFunctionInfo> >::~_Uninitialized_backout_al<std::allocator<portable_executable::ImportFunctionInfo> >
PUBLIC	?_Release@?$_Uninitialized_backout_al@V?$allocator@UImportFunctionInfo@portable_executable@@@std@@@std@@QEAAPEAUImportFunctionInfo@portable_executable@@XZ ; std::_Uninitialized_backout_al<std::allocator<portable_executable::ImportFunctionInfo> >::_Release
PUBLIC	??$_Get_size_of_n@$0CI@@std@@YA_K_K@Z		; std::_Get_size_of_n<40>
PUBLIC	??$_Ucopy@PEAUImportFunctionInfo@portable_executable@@@?$vector@UImportFunctionInfo@portable_executable@@V?$allocator@UImportFunctionInfo@portable_executable@@@std@@@std@@AEAAPEAUImportFunctionInfo@portable_executable@@PEAU23@00@Z ; std::vector<portable_executable::ImportFunctionInfo,std::allocator<portable_executable::ImportFunctionInfo> >::_Ucopy<portable_executable::ImportFunctionInfo *>
PUBLIC	??$?0V?$allocator@UImportFunctionInfo@portable_executable@@@std@@$$V@?$_Compressed_pair@V?$allocator@UImportFunctionInfo@portable_executable@@@std@@V?$_Vector_val@U?$_Simple_types@UImportFunctionInfo@portable_executable@@@std@@@2@$00@std@@QEAA@U_One_then_variadic_args_t@1@$$QEAV?$allocator@UImportFunctionInfo@portable_executable@@@1@@Z ; std::_Compressed_pair<std::allocator<portable_executable::ImportFunctionInfo>,std::_Vector_val<std::_Simple_types<portable_executable::ImportFunctionInfo> >,1>::_Compressed_pair<std::allocator<portable_executable::ImportFunctionInfo>,std::_Vector_val<std::_Simple_types<portable_executable::ImportFunctionInfo> >,1><std::allocator<portable_executable::ImportFunctionInfo> >
PUBLIC	??$_Get_unwrapped@AEBQEAUImportFunctionInfo@portable_executable@@@std@@YA?A_TAEBQEAUImportFunctionInfo@portable_executable@@@Z ; std::_Get_unwrapped<portable_executable::ImportFunctionInfo * const &>
PUBLIC	??$_Uninitialized_move@PEAUImportFunctionInfo@portable_executable@@V?$allocator@UImportFunctionInfo@portable_executable@@@std@@@std@@YAPEAUImportFunctionInfo@portable_executable@@QEAU12@0PEAU12@AEAV?$allocator@UImportFunctionInfo@portable_executable@@@0@@Z ; std::_Uninitialized_move<portable_executable::ImportFunctionInfo *,std::allocator<portable_executable::ImportFunctionInfo> >
PUBLIC	??$_Get_size_of_n@$0BI@@std@@YA_K_K@Z		; std::_Get_size_of_n<24>
PUBLIC	??$_Get_unwrapped@AEBQEAURelocInfo@portable_executable@@@std@@YA?A_TAEBQEAURelocInfo@portable_executable@@@Z ; std::_Get_unwrapped<portable_executable::RelocInfo * const &>
PUBLIC	??$_Uninitialized_move@PEAURelocInfo@portable_executable@@V?$allocator@URelocInfo@portable_executable@@@std@@@std@@YAPEAURelocInfo@portable_executable@@QEAU12@0PEAU12@AEAV?$allocator@URelocInfo@portable_executable@@@0@@Z ; std::_Uninitialized_move<portable_executable::RelocInfo *,std::allocator<portable_executable::RelocInfo> >
PUBLIC	??$_Get_size_of_n@$0DI@@std@@YA_K_K@Z		; std::_Get_size_of_n<56>
PUBLIC	??$_Get_unwrapped@AEBQEAUImportInfo@portable_executable@@@std@@YA?A_TAEBQEAUImportInfo@portable_executable@@@Z ; std::_Get_unwrapped<portable_executable::ImportInfo * const &>
PUBLIC	??$_Uninitialized_move@PEAUImportInfo@portable_executable@@V?$allocator@UImportInfo@portable_executable@@@std@@@std@@YAPEAUImportInfo@portable_executable@@QEAU12@0PEAU12@AEAV?$allocator@UImportInfo@portable_executable@@@0@@Z ; std::_Uninitialized_move<portable_executable::ImportInfo *,std::allocator<portable_executable::ImportInfo> >
PUBLIC	??$_Voidify_iter@PEAUImportFunctionInfo@portable_executable@@@std@@YAPEAXPEAUImportFunctionInfo@portable_executable@@@Z ; std::_Voidify_iter<portable_executable::ImportFunctionInfo *>
PUBLIC	??$forward@PEAURelocInfo@portable_executable@@@std@@YA$$QEAPEAURelocInfo@portable_executable@@AEAPEAU12@@Z ; std::forward<portable_executable::RelocInfo *>
PUBLIC	??$forward@V?$allocator@URelocInfo@portable_executable@@@std@@@std@@YA$$QEAV?$allocator@URelocInfo@portable_executable@@@0@AEAV10@@Z ; std::forward<std::allocator<portable_executable::RelocInfo> >
PUBLIC	??$_Voidify_iter@PEAURelocInfo@portable_executable@@@std@@YAPEAXPEAURelocInfo@portable_executable@@@Z ; std::_Voidify_iter<portable_executable::RelocInfo *>
PUBLIC	??$forward@PEAUImportInfo@portable_executable@@@std@@YA$$QEAPEAUImportInfo@portable_executable@@AEAPEAU12@@Z ; std::forward<portable_executable::ImportInfo *>
PUBLIC	??$forward@V?$allocator@UImportInfo@portable_executable@@@std@@@std@@YA$$QEAV?$allocator@UImportInfo@portable_executable@@@0@AEAV10@@Z ; std::forward<std::allocator<portable_executable::ImportInfo> >
PUBLIC	??$_Voidify_iter@PEAUImportInfo@portable_executable@@@std@@YAPEAXPEAUImportInfo@portable_executable@@@Z ; std::_Voidify_iter<portable_executable::ImportInfo *>
PUBLIC	?_Get_first@?$_Compressed_pair@V?$allocator@UImportFunctionInfo@portable_executable@@@std@@V?$_Vector_val@U?$_Simple_types@UImportFunctionInfo@portable_executable@@@std@@@2@$00@std@@QEBAAEBV?$allocator@UImportFunctionInfo@portable_executable@@@2@XZ ; std::_Compressed_pair<std::allocator<portable_executable::ImportFunctionInfo>,std::_Vector_val<std::_Simple_types<portable_executable::ImportFunctionInfo> >,1>::_Get_first
PUBLIC	?_Get_first@?$_Compressed_pair@V?$allocator@URelocInfo@portable_executable@@@std@@V?$_Vector_val@U?$_Simple_types@URelocInfo@portable_executable@@@std@@@2@$00@std@@QEBAAEBV?$allocator@URelocInfo@portable_executable@@@2@XZ ; std::_Compressed_pair<std::allocator<portable_executable::RelocInfo>,std::_Vector_val<std::_Simple_types<portable_executable::RelocInfo> >,1>::_Get_first
PUBLIC	?_Get_first@?$_Compressed_pair@V?$allocator@UImportInfo@portable_executable@@@std@@V?$_Vector_val@U?$_Simple_types@UImportInfo@portable_executable@@@std@@@2@$00@std@@QEBAAEBV?$allocator@UImportInfo@portable_executable@@@2@XZ ; std::_Compressed_pair<std::allocator<portable_executable::ImportInfo>,std::_Vector_val<std::_Simple_types<portable_executable::ImportInfo> >,1>::_Get_first
PUBLIC	?max_size@?$_Default_allocator_traits@V?$allocator@UImportFunctionInfo@portable_executable@@@std@@@std@@SA_KAEBV?$allocator@UImportFunctionInfo@portable_executable@@@2@@Z ; std::_Default_allocator_traits<std::allocator<portable_executable::ImportFunctionInfo> >::max_size
PUBLIC	?select_on_container_copy_construction@?$_Default_allocator_traits@V?$allocator@UImportFunctionInfo@portable_executable@@@std@@@std@@SA?AV?$allocator@UImportFunctionInfo@portable_executable@@@2@AEBV32@@Z ; std::_Default_allocator_traits<std::allocator<portable_executable::ImportFunctionInfo> >::select_on_container_copy_construction
PUBLIC	?capacity@?$vector@UImportFunctionInfo@portable_executable@@V?$allocator@UImportFunctionInfo@portable_executable@@@std@@@std@@QEBA_KXZ ; std::vector<portable_executable::ImportFunctionInfo,std::allocator<portable_executable::ImportFunctionInfo> >::capacity
PUBLIC	?_Umove_if_noexcept1@?$vector@UImportFunctionInfo@portable_executable@@V?$allocator@UImportFunctionInfo@portable_executable@@@std@@@std@@AEAAXPEAUImportFunctionInfo@portable_executable@@00U?$integral_constant@_N$00@2@@Z ; std::vector<portable_executable::ImportFunctionInfo,std::allocator<portable_executable::ImportFunctionInfo> >::_Umove_if_noexcept1
PUBLIC	?_Buy_raw@?$vector@UImportFunctionInfo@portable_executable@@V?$allocator@UImportFunctionInfo@portable_executable@@@std@@@std@@AEAAX_K@Z ; std::vector<portable_executable::ImportFunctionInfo,std::allocator<portable_executable::ImportFunctionInfo> >::_Buy_raw
PUBLIC	?_Getal@?$vector@UImportFunctionInfo@portable_executable@@V?$allocator@UImportFunctionInfo@portable_executable@@@std@@@std@@AEBAAEBV?$allocator@UImportFunctionInfo@portable_executable@@@2@XZ ; std::vector<portable_executable::ImportFunctionInfo,std::allocator<portable_executable::ImportFunctionInfo> >::_Getal
PUBLIC	?max_size@?$_Default_allocator_traits@V?$allocator@URelocInfo@portable_executable@@@std@@@std@@SA_KAEBV?$allocator@URelocInfo@portable_executable@@@2@@Z ; std::_Default_allocator_traits<std::allocator<portable_executable::RelocInfo> >::max_size
PUBLIC	?capacity@?$vector@URelocInfo@portable_executable@@V?$allocator@URelocInfo@portable_executable@@@std@@@std@@QEBA_KXZ ; std::vector<portable_executable::RelocInfo,std::allocator<portable_executable::RelocInfo> >::capacity
PUBLIC	?_Umove_if_noexcept1@?$vector@URelocInfo@portable_executable@@V?$allocator@URelocInfo@portable_executable@@@std@@@std@@AEAAXPEAURelocInfo@portable_executable@@00U?$integral_constant@_N$00@2@@Z ; std::vector<portable_executable::RelocInfo,std::allocator<portable_executable::RelocInfo> >::_Umove_if_noexcept1
PUBLIC	?_Getal@?$vector@URelocInfo@portable_executable@@V?$allocator@URelocInfo@portable_executable@@@std@@@std@@AEBAAEBV?$allocator@URelocInfo@portable_executable@@@2@XZ ; std::vector<portable_executable::RelocInfo,std::allocator<portable_executable::RelocInfo> >::_Getal
PUBLIC	?max_size@?$_Default_allocator_traits@V?$allocator@UImportInfo@portable_executable@@@std@@@std@@SA_KAEBV?$allocator@UImportInfo@portable_executable@@@2@@Z ; std::_Default_allocator_traits<std::allocator<portable_executable::ImportInfo> >::max_size
PUBLIC	?capacity@?$vector@UImportInfo@portable_executable@@V?$allocator@UImportInfo@portable_executable@@@std@@@std@@QEBA_KXZ ; std::vector<portable_executable::ImportInfo,std::allocator<portable_executable::ImportInfo> >::capacity
PUBLIC	?_Umove_if_noexcept1@?$vector@UImportInfo@portable_executable@@V?$allocator@UImportInfo@portable_executable@@@std@@@std@@AEAAXPEAUImportInfo@portable_executable@@00U?$integral_constant@_N$00@2@@Z ; std::vector<portable_executable::ImportInfo,std::allocator<portable_executable::ImportInfo> >::_Umove_if_noexcept1
PUBLIC	?_Getal@?$vector@UImportInfo@portable_executable@@V?$allocator@UImportInfo@portable_executable@@@std@@@std@@AEBAAEBV?$allocator@UImportInfo@portable_executable@@@2@XZ ; std::vector<portable_executable::ImportInfo,std::allocator<portable_executable::ImportInfo> >::_Getal
PUBLIC	??1?$_Tidy_guard@V?$vector@UImportFunctionInfo@portable_executable@@V?$allocator@UImportFunctionInfo@portable_executable@@@std@@@std@@@std@@QEAA@XZ ; std::_Tidy_guard<std::vector<portable_executable::ImportFunctionInfo,std::allocator<portable_executable::ImportFunctionInfo> > >::~_Tidy_guard<std::vector<portable_executable::ImportFunctionInfo,std::allocator<portable_executable::ImportFunctionInfo> > >
PUBLIC	?find@?$_Narrow_char_traits@DH@std@@SAPEBDQEBD_KAEBD@Z ; std::_Narrow_char_traits<char,int>::find
PUBLIC	??0?$allocator@UImportFunctionInfo@portable_executable@@@std@@QEAA@XZ ; std::allocator<portable_executable::ImportFunctionInfo>::allocator<portable_executable::ImportFunctionInfo>
PUBLIC	?allocate@?$allocator@UImportFunctionInfo@portable_executable@@@std@@QEAAPEAUImportFunctionInfo@portable_executable@@_K@Z ; std::allocator<portable_executable::ImportFunctionInfo>::allocate
PUBLIC	??0?$vector@UImportFunctionInfo@portable_executable@@V?$allocator@UImportFunctionInfo@portable_executable@@@std@@@std@@QEAA@AEBV01@@Z ; std::vector<portable_executable::ImportFunctionInfo,std::allocator<portable_executable::ImportFunctionInfo> >::vector<portable_executable::ImportFunctionInfo,std::allocator<portable_executable::ImportFunctionInfo> >
PUBLIC	?max_size@?$vector@UImportFunctionInfo@portable_executable@@V?$allocator@UImportFunctionInfo@portable_executable@@@std@@@std@@QEBA_KXZ ; std::vector<portable_executable::ImportFunctionInfo,std::allocator<portable_executable::ImportFunctionInfo> >::max_size
PUBLIC	?_Umove@?$vector@UImportFunctionInfo@portable_executable@@V?$allocator@UImportFunctionInfo@portable_executable@@@std@@@std@@AEAAPEAUImportFunctionInfo@portable_executable@@PEAU34@00@Z ; std::vector<portable_executable::ImportFunctionInfo,std::allocator<portable_executable::ImportFunctionInfo> >::_Umove
PUBLIC	?_Umove_if_noexcept@?$vector@UImportFunctionInfo@portable_executable@@V?$allocator@UImportFunctionInfo@portable_executable@@@std@@@std@@AEAAXPEAUImportFunctionInfo@portable_executable@@00@Z ; std::vector<portable_executable::ImportFunctionInfo,std::allocator<portable_executable::ImportFunctionInfo> >::_Umove_if_noexcept
PUBLIC	?_Calculate_growth@?$vector@UImportFunctionInfo@portable_executable@@V?$allocator@UImportFunctionInfo@portable_executable@@@std@@@std@@AEBA_K_K@Z ; std::vector<portable_executable::ImportFunctionInfo,std::allocator<portable_executable::ImportFunctionInfo> >::_Calculate_growth
PUBLIC	?_Change_array@?$vector@UImportFunctionInfo@portable_executable@@V?$allocator@UImportFunctionInfo@portable_executable@@@std@@@std@@AEAAXQEAUImportFunctionInfo@portable_executable@@_K1@Z ; std::vector<portable_executable::ImportFunctionInfo,std::allocator<portable_executable::ImportFunctionInfo> >::_Change_array
PUBLIC	?_Xlength@?$vector@UImportFunctionInfo@portable_executable@@V?$allocator@UImportFunctionInfo@portable_executable@@@std@@@std@@CAXXZ ; std::vector<portable_executable::ImportFunctionInfo,std::allocator<portable_executable::ImportFunctionInfo> >::_Xlength
PUBLIC	??0?$_Vector_val@U?$_Simple_types@UImportFunctionInfo@portable_executable@@@std@@@std@@QEAA@XZ ; std::_Vector_val<std::_Simple_types<portable_executable::ImportFunctionInfo> >::_Vector_val<std::_Simple_types<portable_executable::ImportFunctionInfo> >
PUBLIC	??0?$allocator@URelocInfo@portable_executable@@@std@@QEAA@XZ ; std::allocator<portable_executable::RelocInfo>::allocator<portable_executable::RelocInfo>
PUBLIC	?allocate@?$allocator@URelocInfo@portable_executable@@@std@@QEAAPEAURelocInfo@portable_executable@@_K@Z ; std::allocator<portable_executable::RelocInfo>::allocate
PUBLIC	?max_size@?$vector@URelocInfo@portable_executable@@V?$allocator@URelocInfo@portable_executable@@@std@@@std@@QEBA_KXZ ; std::vector<portable_executable::RelocInfo,std::allocator<portable_executable::RelocInfo> >::max_size
PUBLIC	?_Umove@?$vector@URelocInfo@portable_executable@@V?$allocator@URelocInfo@portable_executable@@@std@@@std@@AEAAPEAURelocInfo@portable_executable@@PEAU34@00@Z ; std::vector<portable_executable::RelocInfo,std::allocator<portable_executable::RelocInfo> >::_Umove
PUBLIC	?_Umove_if_noexcept@?$vector@URelocInfo@portable_executable@@V?$allocator@URelocInfo@portable_executable@@@std@@@std@@AEAAXPEAURelocInfo@portable_executable@@00@Z ; std::vector<portable_executable::RelocInfo,std::allocator<portable_executable::RelocInfo> >::_Umove_if_noexcept
PUBLIC	?_Calculate_growth@?$vector@URelocInfo@portable_executable@@V?$allocator@URelocInfo@portable_executable@@@std@@@std@@AEBA_K_K@Z ; std::vector<portable_executable::RelocInfo,std::allocator<portable_executable::RelocInfo> >::_Calculate_growth
PUBLIC	?_Change_array@?$vector@URelocInfo@portable_executable@@V?$allocator@URelocInfo@portable_executable@@@std@@@std@@AEAAXQEAURelocInfo@portable_executable@@_K1@Z ; std::vector<portable_executable::RelocInfo,std::allocator<portable_executable::RelocInfo> >::_Change_array
PUBLIC	?_Xlength@?$vector@URelocInfo@portable_executable@@V?$allocator@URelocInfo@portable_executable@@@std@@@std@@CAXXZ ; std::vector<portable_executable::RelocInfo,std::allocator<portable_executable::RelocInfo> >::_Xlength
PUBLIC	??0?$_Vector_val@U?$_Simple_types@URelocInfo@portable_executable@@@std@@@std@@QEAA@XZ ; std::_Vector_val<std::_Simple_types<portable_executable::RelocInfo> >::_Vector_val<std::_Simple_types<portable_executable::RelocInfo> >
PUBLIC	??0?$_Vector_val@U?$_Simple_types@URelocInfo@portable_executable@@@std@@@std@@QEAA@PEAURelocInfo@portable_executable@@00@Z ; std::_Vector_val<std::_Simple_types<portable_executable::RelocInfo> >::_Vector_val<std::_Simple_types<portable_executable::RelocInfo> >
PUBLIC	??0?$allocator@UImportInfo@portable_executable@@@std@@QEAA@XZ ; std::allocator<portable_executable::ImportInfo>::allocator<portable_executable::ImportInfo>
PUBLIC	?allocate@?$allocator@UImportInfo@portable_executable@@@std@@QEAAPEAUImportInfo@portable_executable@@_K@Z ; std::allocator<portable_executable::ImportInfo>::allocate
PUBLIC	?max_size@?$vector@UImportInfo@portable_executable@@V?$allocator@UImportInfo@portable_executable@@@std@@@std@@QEBA_KXZ ; std::vector<portable_executable::ImportInfo,std::allocator<portable_executable::ImportInfo> >::max_size
PUBLIC	?_Umove@?$vector@UImportInfo@portable_executable@@V?$allocator@UImportInfo@portable_executable@@@std@@@std@@AEAAPEAUImportInfo@portable_executable@@PEAU34@00@Z ; std::vector<portable_executable::ImportInfo,std::allocator<portable_executable::ImportInfo> >::_Umove
PUBLIC	?_Umove_if_noexcept@?$vector@UImportInfo@portable_executable@@V?$allocator@UImportInfo@portable_executable@@@std@@@std@@AEAAXPEAUImportInfo@portable_executable@@00@Z ; std::vector<portable_executable::ImportInfo,std::allocator<portable_executable::ImportInfo> >::_Umove_if_noexcept
PUBLIC	?_Calculate_growth@?$vector@UImportInfo@portable_executable@@V?$allocator@UImportInfo@portable_executable@@@std@@@std@@AEBA_K_K@Z ; std::vector<portable_executable::ImportInfo,std::allocator<portable_executable::ImportInfo> >::_Calculate_growth
PUBLIC	?_Change_array@?$vector@UImportInfo@portable_executable@@V?$allocator@UImportInfo@portable_executable@@@std@@@std@@AEAAXQEAUImportInfo@portable_executable@@_K1@Z ; std::vector<portable_executable::ImportInfo,std::allocator<portable_executable::ImportInfo> >::_Change_array
PUBLIC	?_Xlength@?$vector@UImportInfo@portable_executable@@V?$allocator@UImportInfo@portable_executable@@@std@@@std@@CAXXZ ; std::vector<portable_executable::ImportInfo,std::allocator<portable_executable::ImportInfo> >::_Xlength
PUBLIC	??0?$_Vector_val@U?$_Simple_types@UImportInfo@portable_executable@@@std@@@std@@QEAA@XZ ; std::_Vector_val<std::_Simple_types<portable_executable::ImportInfo> >::_Vector_val<std::_Simple_types<portable_executable::ImportInfo> >
PUBLIC	??0?$_Vector_val@U?$_Simple_types@UImportInfo@portable_executable@@@std@@@std@@QEAA@PEAUImportInfo@portable_executable@@00@Z ; std::_Vector_val<std::_Simple_types<portable_executable::ImportInfo> >::_Vector_val<std::_Simple_types<portable_executable::ImportInfo> >
PUBLIC	??0ImportFunctionInfo@portable_executable@@QEAA@AEBU01@@Z ; portable_executable::ImportFunctionInfo::ImportFunctionInfo
PUBLIC	??0ImportInfo@portable_executable@@QEAA@AEBU01@@Z ; portable_executable::ImportInfo::ImportInfo
PUBLIC	??$_Pocma@V?$allocator@D@std@@@std@@YAXAEAV?$allocator@D@0@0@Z ; std::_Pocma<std::allocator<char> >
PUBLIC	??$_Reallocate_grow_by@V<lambda_55b0f89b53a0342680e40398a0d39887>@@_K_KPEBD_K@?$basic_string@DU?$char_traits@D@std@@V?$allocator@D@2@@std@@AEAAAEAV01@_KV<lambda_55b0f89b53a0342680e40398a0d39887>@@_K2PEBD2@Z ; std::basic_string<char,std::char_traits<char>,std::allocator<char> >::_Reallocate_grow_by<<lambda_55b0f89b53a0342680e40398a0d39887>,unsigned __int64,unsigned __int64,char const *,unsigned __int64>
PUBLIC	??$addressof@V?$basic_string@DU?$char_traits@D@std@@V?$allocator@D@2@@std@@@std@@YAPEAV?$basic_string@DU?$char_traits@D@std@@V?$allocator@D@2@@0@AEAV10@@Z ; std::addressof<std::basic_string<char,std::char_traits<char>,std::allocator<char> > >
PUBLIC	??$_Traits_find@U?$char_traits@D@std@@@std@@YA_KQEBD_K101@Z ; std::_Traits_find<std::char_traits<char> >
PUBLIC	??$?0$$V@?$_Compressed_pair@V?$allocator@UImportFunctionInfo@portable_executable@@@std@@V?$_Vector_val@U?$_Simple_types@UImportFunctionInfo@portable_executable@@@std@@@2@$00@std@@QEAA@U_Zero_then_variadic_args_t@1@@Z ; std::_Compressed_pair<std::allocator<portable_executable::ImportFunctionInfo>,std::_Vector_val<std::_Simple_types<portable_executable::ImportFunctionInfo> >,1>::_Compressed_pair<std::allocator<portable_executable::ImportFunctionInfo>,std::_Vector_val<std::_Simple_types<portable_executable::ImportFunctionInfo> >,1><>
PUBLIC	??$_Emplace_reallocate@AEBUImportFunctionInfo@portable_executable@@@?$vector@UImportFunctionInfo@portable_executable@@V?$allocator@UImportFunctionInfo@portable_executable@@@std@@@std@@QEAAPEAUImportFunctionInfo@portable_executable@@QEAU23@AEBU23@@Z ; std::vector<portable_executable::ImportFunctionInfo,std::allocator<portable_executable::ImportFunctionInfo> >::_Emplace_reallocate<portable_executable::ImportFunctionInfo const &>
PUBLIC	??$construct@UImportFunctionInfo@portable_executable@@AEBU12@@?$_Default_allocator_traits@V?$allocator@UImportFunctionInfo@portable_executable@@@std@@@std@@SAXAEAV?$allocator@UImportFunctionInfo@portable_executable@@@1@QEAUImportFunctionInfo@portable_executable@@AEBU34@@Z ; std::_Default_allocator_traits<std::allocator<portable_executable::ImportFunctionInfo> >::construct<portable_executable::ImportFunctionInfo,portable_executable::ImportFunctionInfo const &>
PUBLIC	??$forward@AEBUImportFunctionInfo@portable_executable@@@std@@YAAEBUImportFunctionInfo@portable_executable@@AEBU12@@Z ; std::forward<portable_executable::ImportFunctionInfo const &>
PUBLIC	??$?0$$V@?$_Compressed_pair@V?$allocator@URelocInfo@portable_executable@@@std@@V?$_Vector_val@U?$_Simple_types@URelocInfo@portable_executable@@@std@@@2@$00@std@@QEAA@U_Zero_then_variadic_args_t@1@@Z ; std::_Compressed_pair<std::allocator<portable_executable::RelocInfo>,std::_Vector_val<std::_Simple_types<portable_executable::RelocInfo> >,1>::_Compressed_pair<std::allocator<portable_executable::RelocInfo>,std::_Vector_val<std::_Simple_types<portable_executable::RelocInfo> >,1><>
PUBLIC	??$?0V?$allocator@URelocInfo@portable_executable@@@std@@PEAURelocInfo@portable_executable@@PEAU23@PEAU23@@?$_Compressed_pair@V?$allocator@URelocInfo@portable_executable@@@std@@V?$_Vector_val@U?$_Simple_types@URelocInfo@portable_executable@@@std@@@2@$00@std@@QEAA@U_One_then_variadic_args_t@1@$$QEAV?$allocator@URelocInfo@portable_executable@@@1@$$QEAPEAURelocInfo@portable_executable@@22@Z ; std::_Compressed_pair<std::allocator<portable_executable::RelocInfo>,std::_Vector_val<std::_Simple_types<portable_executable::RelocInfo> >,1>::_Compressed_pair<std::allocator<portable_executable::RelocInfo>,std::_Vector_val<std::_Simple_types<portable_executable::RelocInfo> >,1><std::allocator<portable_executable::RelocInfo>,portable_executable::RelocInfo *,portable_executable::RelocInfo *,portable_executable::RelocInfo *>
PUBLIC	??$exchange@PEAURelocInfo@portable_executable@@$$T@std@@YAPEAURelocInfo@portable_executable@@AEAPEAU12@$$QEA$$T@Z ; std::exchange<portable_executable::RelocInfo *,std::nullptr_t>
PUBLIC	??$move@AEAV?$allocator@URelocInfo@portable_executable@@@std@@@std@@YA$$QEAV?$allocator@URelocInfo@portable_executable@@@0@AEAV10@@Z ; std::move<std::allocator<portable_executable::RelocInfo> &>
PUBLIC	??$_Emplace_reallocate@AEBURelocInfo@portable_executable@@@?$vector@URelocInfo@portable_executable@@V?$allocator@URelocInfo@portable_executable@@@std@@@std@@QEAAPEAURelocInfo@portable_executable@@QEAU23@AEBU23@@Z ; std::vector<portable_executable::RelocInfo,std::allocator<portable_executable::RelocInfo> >::_Emplace_reallocate<portable_executable::RelocInfo const &>
PUBLIC	??$construct@URelocInfo@portable_executable@@AEBU12@@?$_Default_allocator_traits@V?$allocator@URelocInfo@portable_executable@@@std@@@std@@SAXAEAV?$allocator@URelocInfo@portable_executable@@@1@QEAURelocInfo@portable_executable@@AEBU34@@Z ; std::_Default_allocator_traits<std::allocator<portable_executable::RelocInfo> >::construct<portable_executable::RelocInfo,portable_executable::RelocInfo const &>
PUBLIC	??$_Unfancy@URelocInfo@portable_executable@@@std@@YAPEAURelocInfo@portable_executable@@PEAU12@@Z ; std::_Unfancy<portable_executable::RelocInfo>
PUBLIC	??$forward@AEBURelocInfo@portable_executable@@@std@@YAAEBURelocInfo@portable_executable@@AEBU12@@Z ; std::forward<portable_executable::RelocInfo const &>
PUBLIC	??$?0$$V@?$_Compressed_pair@V?$allocator@UImportInfo@portable_executable@@@std@@V?$_Vector_val@U?$_Simple_types@UImportInfo@portable_executable@@@std@@@2@$00@std@@QEAA@U_Zero_then_variadic_args_t@1@@Z ; std::_Compressed_pair<std::allocator<portable_executable::ImportInfo>,std::_Vector_val<std::_Simple_types<portable_executable::ImportInfo> >,1>::_Compressed_pair<std::allocator<portable_executable::ImportInfo>,std::_Vector_val<std::_Simple_types<portable_executable::ImportInfo> >,1><>
PUBLIC	??$?0V?$allocator@UImportInfo@portable_executable@@@std@@PEAUImportInfo@portable_executable@@PEAU23@PEAU23@@?$_Compressed_pair@V?$allocator@UImportInfo@portable_executable@@@std@@V?$_Vector_val@U?$_Simple_types@UImportInfo@portable_executable@@@std@@@2@$00@std@@QEAA@U_One_then_variadic_args_t@1@$$QEAV?$allocator@UImportInfo@portable_executable@@@1@$$QEAPEAUImportInfo@portable_executable@@22@Z ; std::_Compressed_pair<std::allocator<portable_executable::ImportInfo>,std::_Vector_val<std::_Simple_types<portable_executable::ImportInfo> >,1>::_Compressed_pair<std::allocator<portable_executable::ImportInfo>,std::_Vector_val<std::_Simple_types<portable_executable::ImportInfo> >,1><std::allocator<portable_executable::ImportInfo>,portable_executable::ImportInfo *,portable_executable::ImportInfo *,portable_executable::ImportInfo *>
PUBLIC	??$exchange@PEAUImportInfo@portable_executable@@$$T@std@@YAPEAUImportInfo@portable_executable@@AEAPEAU12@$$QEA$$T@Z ; std::exchange<portable_executable::ImportInfo *,std::nullptr_t>
PUBLIC	??$move@AEAV?$allocator@UImportInfo@portable_executable@@@std@@@std@@YA$$QEAV?$allocator@UImportInfo@portable_executable@@@0@AEAV10@@Z ; std::move<std::allocator<portable_executable::ImportInfo> &>
PUBLIC	??$_Emplace_reallocate@AEBUImportInfo@portable_executable@@@?$vector@UImportInfo@portable_executable@@V?$allocator@UImportInfo@portable_executable@@@std@@@std@@QEAAPEAUImportInfo@portable_executable@@QEAU23@AEBU23@@Z ; std::vector<portable_executable::ImportInfo,std::allocator<portable_executable::ImportInfo> >::_Emplace_reallocate<portable_executable::ImportInfo const &>
PUBLIC	??$construct@UImportInfo@portable_executable@@AEBU12@@?$_Default_allocator_traits@V?$allocator@UImportInfo@portable_executable@@@std@@@std@@SAXAEAV?$allocator@UImportInfo@portable_executable@@@1@QEAUImportInfo@portable_executable@@AEBU34@@Z ; std::_Default_allocator_traits<std::allocator<portable_executable::ImportInfo> >::construct<portable_executable::ImportInfo,portable_executable::ImportInfo const &>
PUBLIC	??$forward@AEBUImportInfo@portable_executable@@@std@@YAAEBUImportInfo@portable_executable@@AEBU12@@Z ; std::forward<portable_executable::ImportInfo const &>
PUBLIC	?_Move_assign@?$basic_string@DU?$char_traits@D@std@@V?$allocator@D@2@@std@@AEAAXAEAV12@U_Equal_allocators@2@@Z ; std::basic_string<char,std::char_traits<char>,std::allocator<char> >::_Move_assign
PUBLIC	??R<lambda_55b0f89b53a0342680e40398a0d39887>@@QEBA@QEADQEBD_K2212@Z ; <lambda_55b0f89b53a0342680e40398a0d39887>::operator()
PUBLIC	?replace@?$basic_string@DU?$char_traits@D@std@@V?$allocator@D@2@@std@@QEAAAEAV12@_K_KQEBD0@Z ; std::basic_string<char,std::char_traits<char>,std::allocator<char> >::replace
PUBLIC	?_Orphan_range@?$vector@UImportFunctionInfo@portable_executable@@V?$allocator@UImportFunctionInfo@portable_executable@@@std@@@std@@AEBAXPEAUImportFunctionInfo@portable_executable@@0@Z ; std::vector<portable_executable::ImportFunctionInfo,std::allocator<portable_executable::ImportFunctionInfo> >::_Orphan_range
PUBLIC	?_Orphan_range@?$vector@URelocInfo@portable_executable@@V?$allocator@URelocInfo@portable_executable@@@std@@@std@@AEBAXPEAURelocInfo@portable_executable@@0@Z ; std::vector<portable_executable::RelocInfo,std::allocator<portable_executable::RelocInfo> >::_Orphan_range
PUBLIC	?_Orphan_range@?$vector@UImportInfo@portable_executable@@V?$allocator@UImportInfo@portable_executable@@@std@@@std@@AEBAXPEAUImportInfo@portable_executable@@0@Z ; std::vector<portable_executable::ImportInfo,std::allocator<portable_executable::ImportInfo> >::_Orphan_range
PUBLIC	??4?$basic_string@DU?$char_traits@D@std@@V?$allocator@D@2@@std@@QEAAAEAV01@$$QEAV01@@Z ; std::basic_string<char,std::char_traits<char>,std::allocator<char> >::operator=
PUBLIC	??4?$basic_string@DU?$char_traits@D@std@@V?$allocator@D@2@@std@@QEAAAEAV01@QEBD@Z ; std::basic_string<char,std::char_traits<char>,std::allocator<char> >::operator=
PUBLIC	?replace@?$basic_string@DU?$char_traits@D@std@@V?$allocator@D@2@@std@@QEAAAEAV12@_K0AEBV12@@Z ; std::basic_string<char,std::char_traits<char>,std::allocator<char> >::replace
PUBLIC	?find@?$basic_string@DU?$char_traits@D@std@@V?$allocator@D@2@@std@@QEBA_KQEBD_K@Z ; std::basic_string<char,std::char_traits<char>,std::allocator<char> >::find
PUBLIC	??0?$vector@UImportFunctionInfo@portable_executable@@V?$allocator@UImportFunctionInfo@portable_executable@@@std@@@std@@QEAA@XZ ; std::vector<portable_executable::ImportFunctionInfo,std::allocator<portable_executable::ImportFunctionInfo> >::vector<portable_executable::ImportFunctionInfo,std::allocator<portable_executable::ImportFunctionInfo> >
PUBLIC	??$_Emplace_back_with_unused_capacity@AEBUImportFunctionInfo@portable_executable@@@?$vector@UImportFunctionInfo@portable_executable@@V?$allocator@UImportFunctionInfo@portable_executable@@@std@@@std@@AEAA?A_TAEBUImportFunctionInfo@portable_executable@@@Z ; std::vector<portable_executable::ImportFunctionInfo,std::allocator<portable_executable::ImportFunctionInfo> >::_Emplace_back_with_unused_capacity<portable_executable::ImportFunctionInfo const &>
PUBLIC	??$emplace_back@AEBUImportFunctionInfo@portable_executable@@@?$vector@UImportFunctionInfo@portable_executable@@V?$allocator@UImportFunctionInfo@portable_executable@@@std@@@std@@QEAA?A_TAEBUImportFunctionInfo@portable_executable@@@Z ; std::vector<portable_executable::ImportFunctionInfo,std::allocator<portable_executable::ImportFunctionInfo> >::emplace_back<portable_executable::ImportFunctionInfo const &>
PUBLIC	?push_back@?$vector@UImportFunctionInfo@portable_executable@@V?$allocator@UImportFunctionInfo@portable_executable@@@std@@@std@@QEAAXAEBUImportFunctionInfo@portable_executable@@@Z ; std::vector<portable_executable::ImportFunctionInfo,std::allocator<portable_executable::ImportFunctionInfo> >::push_back
PUBLIC	?_Unchecked_begin@?$vector@UImportFunctionInfo@portable_executable@@V?$allocator@UImportFunctionInfo@portable_executable@@@std@@@std@@QEBAPEBUImportFunctionInfo@portable_executable@@XZ ; std::vector<portable_executable::ImportFunctionInfo,std::allocator<portable_executable::ImportFunctionInfo> >::_Unchecked_begin
PUBLIC	?_Unchecked_end@?$vector@UImportFunctionInfo@portable_executable@@V?$allocator@UImportFunctionInfo@portable_executable@@@std@@@std@@QEBAPEBUImportFunctionInfo@portable_executable@@XZ ; std::vector<portable_executable::ImportFunctionInfo,std::allocator<portable_executable::ImportFunctionInfo> >::_Unchecked_end
PUBLIC	??0?$vector@URelocInfo@portable_executable@@V?$allocator@URelocInfo@portable_executable@@@std@@@std@@QEAA@XZ ; std::vector<portable_executable::RelocInfo,std::allocator<portable_executable::RelocInfo> >::vector<portable_executable::RelocInfo,std::allocator<portable_executable::RelocInfo> >
PUBLIC	??0?$vector@URelocInfo@portable_executable@@V?$allocator@URelocInfo@portable_executable@@@std@@@std@@QEAA@$$QEAV01@@Z ; std::vector<portable_executable::RelocInfo,std::allocator<portable_executable::RelocInfo> >::vector<portable_executable::RelocInfo,std::allocator<portable_executable::RelocInfo> >
PUBLIC	??$_Emplace_back_with_unused_capacity@AEBURelocInfo@portable_executable@@@?$vector@URelocInfo@portable_executable@@V?$allocator@URelocInfo@portable_executable@@@std@@@std@@AEAA?A_TAEBURelocInfo@portable_executable@@@Z ; std::vector<portable_executable::RelocInfo,std::allocator<portable_executable::RelocInfo> >::_Emplace_back_with_unused_capacity<portable_executable::RelocInfo const &>
PUBLIC	??$emplace_back@AEBURelocInfo@portable_executable@@@?$vector@URelocInfo@portable_executable@@V?$allocator@URelocInfo@portable_executable@@@std@@@std@@QEAA?A_TAEBURelocInfo@portable_executable@@@Z ; std::vector<portable_executable::RelocInfo,std::allocator<portable_executable::RelocInfo> >::emplace_back<portable_executable::RelocInfo const &>
PUBLIC	?push_back@?$vector@URelocInfo@portable_executable@@V?$allocator@URelocInfo@portable_executable@@@std@@@std@@QEAAXAEBURelocInfo@portable_executable@@@Z ; std::vector<portable_executable::RelocInfo,std::allocator<portable_executable::RelocInfo> >::push_back
PUBLIC	?_Unchecked_begin@?$vector@URelocInfo@portable_executable@@V?$allocator@URelocInfo@portable_executable@@@std@@@std@@QEAAPEAURelocInfo@portable_executable@@XZ ; std::vector<portable_executable::RelocInfo,std::allocator<portable_executable::RelocInfo> >::_Unchecked_begin
PUBLIC	?_Unchecked_end@?$vector@URelocInfo@portable_executable@@V?$allocator@URelocInfo@portable_executable@@@std@@@std@@QEAAPEAURelocInfo@portable_executable@@XZ ; std::vector<portable_executable::RelocInfo,std::allocator<portable_executable::RelocInfo> >::_Unchecked_end
PUBLIC	??0?$vector@UImportInfo@portable_executable@@V?$allocator@UImportInfo@portable_executable@@@std@@@std@@QEAA@XZ ; std::vector<portable_executable::ImportInfo,std::allocator<portable_executable::ImportInfo> >::vector<portable_executable::ImportInfo,std::allocator<portable_executable::ImportInfo> >
PUBLIC	??0?$vector@UImportInfo@portable_executable@@V?$allocator@UImportInfo@portable_executable@@@std@@@std@@QEAA@$$QEAV01@@Z ; std::vector<portable_executable::ImportInfo,std::allocator<portable_executable::ImportInfo> >::vector<portable_executable::ImportInfo,std::allocator<portable_executable::ImportInfo> >
PUBLIC	??$_Emplace_back_with_unused_capacity@AEBUImportInfo@portable_executable@@@?$vector@UImportInfo@portable_executable@@V?$allocator@UImportInfo@portable_executable@@@std@@@std@@AEAA?A_TAEBUImportInfo@portable_executable@@@Z ; std::vector<portable_executable::ImportInfo,std::allocator<portable_executable::ImportInfo> >::_Emplace_back_with_unused_capacity<portable_executable::ImportInfo const &>
PUBLIC	??$emplace_back@AEBUImportInfo@portable_executable@@@?$vector@UImportInfo@portable_executable@@V?$allocator@UImportInfo@portable_executable@@@std@@@std@@QEAA?A_TAEBUImportInfo@portable_executable@@@Z ; std::vector<portable_executable::ImportInfo,std::allocator<portable_executable::ImportInfo> >::emplace_back<portable_executable::ImportInfo const &>
PUBLIC	?push_back@?$vector@UImportInfo@portable_executable@@V?$allocator@UImportInfo@portable_executable@@@std@@@std@@QEAAXAEBUImportInfo@portable_executable@@@Z ; std::vector<portable_executable::ImportInfo,std::allocator<portable_executable::ImportInfo> >::push_back
PUBLIC	?_Unchecked_begin@?$vector@UImportInfo@portable_executable@@V?$allocator@UImportInfo@portable_executable@@@std@@@std@@QEAAPEAUImportInfo@portable_executable@@XZ ; std::vector<portable_executable::ImportInfo,std::allocator<portable_executable::ImportInfo> >::_Unchecked_begin
PUBLIC	?_Unchecked_end@?$vector@UImportInfo@portable_executable@@V?$allocator@UImportInfo@portable_executable@@@std@@@std@@QEAAPEAUImportInfo@portable_executable@@XZ ; std::vector<portable_executable::ImportInfo,std::allocator<portable_executable::ImportInfo> >::_Unchecked_end
PUBLIC	??0ImportFunctionInfo@portable_executable@@QEAA@XZ ; portable_executable::ImportFunctionInfo::ImportFunctionInfo
PUBLIC	??0ImportInfo@portable_executable@@QEAA@XZ	; portable_executable::ImportInfo::ImportInfo
PUBLIC	?get_imports@portable_executable@@YA?AV?$vector@UImportInfo@portable_executable@@V?$allocator@UImportInfo@portable_executable@@@std@@@std@@PEAX@Z ; portable_executable::get_imports
PUBLIC	?relocate_image_by_delta@portable_executable@@YAXV?$vector@URelocInfo@portable_executable@@V?$allocator@URelocInfo@portable_executable@@@std@@@std@@_K@Z ; portable_executable::relocate_image_by_delta
PUBLIC	?get_relocations@portable_executable@@YA?AV?$vector@URelocInfo@portable_executable@@V?$allocator@URelocInfo@portable_executable@@@std@@@std@@PEAX@Z ; portable_executable::get_relocations
PUBLIC	?get_nt_headers@portable_executable@@YAPEAU_IMAGE_NT_HEADERS64@@PEAX@Z ; portable_executable::get_nt_headers
PUBLIC	?resolve_imports@portable_executable@@YA_NV?$vector@UImportInfo@portable_executable@@V?$allocator@UImportInfo@portable_executable@@@std@@@std@@@Z ; portable_executable::resolve_imports
;	COMDAT pdata
pdata	SEGMENT
$pdata$??$construct@UImportFunctionInfo@portable_executable@@AEAU12@@?$_Default_allocator_traits@V?$allocator@UImportFunctionInfo@portable_executable@@@std@@@std@@SAXAEAV?$allocator@UImportFunctionInfo@portable_executable@@@1@QEAUImportFunctionInfo@portable_executable@@AEAU34@@Z DD imagerel $LN8
	DD	imagerel $LN8+46
	DD	imagerel $unwind$??$construct@UImportFunctionInfo@portable_executable@@AEAU12@@?$_Default_allocator_traits@V?$allocator@UImportFunctionInfo@portable_executable@@@std@@@std@@SAXAEAV?$allocator@UImportFunctionInfo@portable_executable@@@1@QEAUImportFunctionInfo@portable_executable@@AEAU34@@Z
pdata	ENDS
;	COMDAT pdata
pdata	SEGMENT
$pdata$??$_Emplace_back@AEAUImportFunctionInfo@portable_executable@@@?$_Uninitialized_backout_al@V?$allocator@UImportFunctionInfo@portable_executable@@@std@@@std@@QEAAXAEAUImportFunctionInfo@portable_executable@@@Z DD imagerel $LN10
	DD	imagerel $LN10+62
	DD	imagerel $unwind$??$_Emplace_back@AEAUImportFunctionInfo@portable_executable@@@?$_Uninitialized_backout_al@V?$allocator@UImportFunctionInfo@portable_executable@@@std@@@std@@QEAAXAEAUImportFunctionInfo@portable_executable@@@Z
pdata	ENDS
;	COMDAT pdata
pdata	SEGMENT
$pdata$??$_Uninitialized_copy@PEAUImportFunctionInfo@portable_executable@@V?$allocator@UImportFunctionInfo@portable_executable@@@std@@@std@@YAPEAUImportFunctionInfo@portable_executable@@QEAU12@0PEAU12@AEAV?$allocator@UImportFunctionInfo@portable_executable@@@0@@Z DD imagerel $LN26
	DD	imagerel $LN26+115
	DD	imagerel $unwind$??$_Uninitialized_copy@PEAUImportFunctionInfo@portable_executable@@V?$allocator@UImportFunctionInfo@portable_executable@@@std@@@std@@YAPEAUImportFunctionInfo@portable_executable@@QEAU12@0PEAU12@AEAV?$allocator@UImportFunctionInfo@portable_executable@@@0@@Z
pdata	ENDS
;	COMDAT pdata
pdata	SEGMENT
$pdata$??$_Copy_memmove@PEAURelocInfo@portable_executable@@PEAU12@@std@@YAPEAURelocInfo@portable_executable@@PEAU12@00@Z DD imagerel $LN4
	DD	imagerel $LN4+48
	DD	imagerel $unwind$??$_Copy_memmove@PEAURelocInfo@portable_executable@@PEAU12@@std@@YAPEAURelocInfo@portable_executable@@PEAU12@00@Z
pdata	ENDS
;	COMDAT pdata
pdata	SEGMENT
$pdata$??1?$_Uninitialized_backout_al@V?$allocator@UImportInfo@portable_executable@@@std@@@std@@QEAA@XZ DD imagerel $LN19
	DD	imagerel $LN19+50
	DD	imagerel $unwind$??1?$_Uninitialized_backout_al@V?$allocator@UImportInfo@portable_executable@@@std@@@std@@QEAA@XZ
pdata	ENDS
;	COMDAT pdata
pdata	SEGMENT
$pdata$??$_Get_size_of_n@$0CI@@std@@YA_K_K@Z DD imagerel $LN7
	DD	imagerel $LN7+38
	DD	imagerel $unwind$??$_Get_size_of_n@$0CI@@std@@YA_K_K@Z
pdata	ENDS
;	COMDAT pdata
pdata	SEGMENT
$pdata$??$_Ucopy@PEAUImportFunctionInfo@portable_executable@@@?$vector@UImportFunctionInfo@portable_executable@@V?$allocator@UImportFunctionInfo@portable_executable@@@std@@@std@@AEAAPEAUImportFunctionInfo@portable_executable@@PEAU23@00@Z DD imagerel $LN28
	DD	imagerel $LN28+115
	DD	imagerel $unwind$??$_Ucopy@PEAUImportFunctionInfo@portable_executable@@@?$vector@UImportFunctionInfo@portable_executable@@V?$allocator@UImportFunctionInfo@portable_executable@@@std@@@std@@AEAAPEAUImportFunctionInfo@portable_executable@@PEAU23@00@Z
pdata	ENDS
;	COMDAT pdata
pdata	SEGMENT
$pdata$??$_Uninitialized_move@PEAUImportFunctionInfo@portable_executable@@V?$allocator@UImportFunctionInfo@portable_executable@@@std@@@std@@YAPEAUImportFunctionInfo@portable_executable@@QEAU12@0PEAU12@AEAV?$allocator@UImportFunctionInfo@portable_executable@@@0@@Z DD imagerel $LN50
	DD	imagerel $LN50+123
	DD	imagerel $unwind$??$_Uninitialized_move@PEAUImportFunctionInfo@portable_executable@@V?$allocator@UImportFunctionInfo@portable_executable@@@std@@@std@@YAPEAUImportFunctionInfo@portable_executable@@QEAU12@0PEAU12@AEAV?$allocator@UImportFunctionInfo@portable_executable@@@0@@Z
pdata	ENDS
;	COMDAT pdata
pdata	SEGMENT
$pdata$??$_Get_size_of_n@$0BI@@std@@YA_K_K@Z DD imagerel $LN7
	DD	imagerel $LN7+38
	DD	imagerel $unwind$??$_Get_size_of_n@$0BI@@std@@YA_K_K@Z
pdata	ENDS
;	COMDAT pdata
pdata	SEGMENT
$pdata$??$_Uninitialized_move@PEAURelocInfo@portable_executable@@V?$allocator@URelocInfo@portable_executable@@@std@@@std@@YAPEAURelocInfo@portable_executable@@QEAU12@0PEAU12@AEAV?$allocator@URelocInfo@portable_executable@@@0@@Z DD imagerel $LN18
	DD	imagerel $LN18+79
	DD	imagerel $unwind$??$_Uninitialized_move@PEAURelocInfo@portable_executable@@V?$allocator@URelocInfo@portable_executable@@@std@@@std@@YAPEAURelocInfo@portable_executable@@QEAU12@0PEAU12@AEAV?$allocator@URelocInfo@portable_executable@@@0@@Z
pdata	ENDS
;	COMDAT pdata
pdata	SEGMENT
$pdata$??$_Get_size_of_n@$0DI@@std@@YA_K_K@Z DD imagerel $LN7
	DD	imagerel $LN7+34
	DD	imagerel $unwind$??$_Get_size_of_n@$0DI@@std@@YA_K_K@Z
pdata	ENDS
;	COMDAT pdata
pdata	SEGMENT
$pdata$??$_Uninitialized_move@PEAUImportInfo@portable_executable@@V?$allocator@UImportInfo@portable_executable@@@std@@@std@@YAPEAUImportInfo@portable_executable@@QEAU12@0PEAU12@AEAV?$allocator@UImportInfo@portable_executable@@@0@@Z DD imagerel $LN77
	DD	imagerel $LN77+18
	DD	imagerel $unwind$??$_Uninitialized_move@PEAUImportInfo@portable_executable@@V?$allocator@UImportInfo@portable_executable@@@std@@@std@@YAPEAUImportInfo@portable_executable@@QEAU12@0PEAU12@AEAV?$allocator@UImportInfo@portable_executable@@@0@@Z
pdata	ENDS
;	COMDAT pdata
pdata	SEGMENT
$pdata$0$??$_Uninitialized_move@PEAUImportInfo@portable_executable@@V?$allocator@UImportInfo@portable_executable@@@std@@@std@@YAPEAUImportInfo@portable_executable@@QEAU12@0PEAU12@AEAV?$allocator@UImportInfo@portable_executable@@@0@@Z DD imagerel $LN77+18
	DD	imagerel $LN77+138
	DD	imagerel $chain$0$??$_Uninitialized_move@PEAUImportInfo@portable_executable@@V?$allocator@UImportInfo@portable_executable@@@std@@@std@@YAPEAUImportInfo@portable_executable@@QEAU12@0PEAU12@AEAV?$allocator@UImportInfo@portable_executable@@@0@@Z
pdata	ENDS
;	COMDAT pdata
pdata	SEGMENT
$pdata$1$??$_Uninitialized_move@PEAUImportInfo@portable_executable@@V?$allocator@UImportInfo@portable_executable@@@std@@@std@@YAPEAUImportInfo@portable_executable@@QEAU12@0PEAU12@AEAV?$allocator@UImportInfo@portable_executable@@@0@@Z DD imagerel $LN77+138
	DD	imagerel $LN77+143
	DD	imagerel $chain$1$??$_Uninitialized_move@PEAUImportInfo@portable_executable@@V?$allocator@UImportInfo@portable_executable@@@std@@@std@@YAPEAUImportInfo@portable_executable@@QEAU12@0PEAU12@AEAV?$allocator@UImportInfo@portable_executable@@@0@@Z
pdata	ENDS
;	COMDAT pdata
pdata	SEGMENT
$pdata$?_Buy_raw@?$vector@UImportFunctionInfo@portable_executable@@V?$allocator@UImportFunctionInfo@portable_executable@@@std@@@std@@AEAAX_K@Z DD imagerel $LN4
	DD	imagerel $LN4+51
	DD	imagerel $unwind$?_Buy_raw@?$vector@UImportFunctionInfo@portable_executable@@V?$allocator@UImportFunctionInfo@portable_executable@@@std@@@std@@AEAAX_K@Z
pdata	ENDS
;	COMDAT pdata
pdata	SEGMENT
$pdata$?allocate@?$allocator@UImportFunctionInfo@portable_executable@@@std@@QEAAPEAUImportFunctionInfo@portable_executable@@_K@Z DD imagerel $LN30
	DD	imagerel $LN30+116
	DD	imagerel $unwind$?allocate@?$allocator@UImportFunctionInfo@portable_executable@@@std@@QEAAPEAUImportFunctionInfo@portable_executable@@_K@Z
pdata	ENDS
;	COMDAT pdata
pdata	SEGMENT
$pdata$??0?$vector@UImportFunctionInfo@portable_executable@@V?$allocator@UImportFunctionInfo@portable_executable@@@std@@@std@@QEAA@AEBV01@@Z DD imagerel $LN94
	DD	imagerel $LN94+191
	DD	imagerel $unwind$??0?$vector@UImportFunctionInfo@portable_executable@@V?$allocator@UImportFunctionInfo@portable_executable@@@std@@@std@@QEAA@AEBV01@@Z
pdata	ENDS
;	COMDAT pdata
pdata	SEGMENT
$pdata$?_Change_array@?$vector@UImportFunctionInfo@portable_executable@@V?$allocator@UImportFunctionInfo@portable_executable@@@std@@@std@@AEAAXQEAUImportFunctionInfo@portable_executable@@_K1@Z DD imagerel $LN27
	DD	imagerel $LN27+180
	DD	imagerel $unwind$?_Change_array@?$vector@UImportFunctionInfo@portable_executable@@V?$allocator@UImportFunctionInfo@portable_executable@@@std@@@std@@AEAAXQEAUImportFunctionInfo@portable_executable@@_K1@Z
pdata	ENDS
;	COMDAT pdata
pdata	SEGMENT
$pdata$?_Xlength@?$vector@UImportFunctionInfo@portable_executable@@V?$allocator@UImportFunctionInfo@portable_executable@@@std@@@std@@CAXXZ DD imagerel $LN4
	DD	imagerel $LN4+18
	DD	imagerel $unwind$?_Xlength@?$vector@UImportFunctionInfo@portable_executable@@V?$allocator@UImportFunctionInfo@portable_executable@@@std@@@std@@CAXXZ
pdata	ENDS
;	COMDAT pdata
pdata	SEGMENT
$pdata$?allocate@?$allocator@URelocInfo@portable_executable@@@std@@QEAAPEAURelocInfo@portable_executable@@_K@Z DD imagerel $LN30
	DD	imagerel $LN30+116
	DD	imagerel $unwind$?allocate@?$allocator@URelocInfo@portable_executable@@@std@@QEAAPEAURelocInfo@portable_executable@@_K@Z
pdata	ENDS
;	COMDAT pdata
pdata	SEGMENT
$pdata$?_Umove@?$vector@URelocInfo@portable_executable@@V?$allocator@URelocInfo@portable_executable@@@std@@@std@@AEAAPEAURelocInfo@portable_executable@@PEAU34@00@Z DD imagerel $LN20
	DD	imagerel $LN20+76
	DD	imagerel $unwind$?_Umove@?$vector@URelocInfo@portable_executable@@V?$allocator@URelocInfo@portable_executable@@@std@@@std@@AEAAPEAURelocInfo@portable_executable@@PEAU34@00@Z
pdata	ENDS
;	COMDAT pdata
pdata	SEGMENT
$pdata$?_Change_array@?$vector@URelocInfo@portable_executable@@V?$allocator@URelocInfo@portable_executable@@@std@@@std@@AEAAXQEAURelocInfo@portable_executable@@_K1@Z DD imagerel $LN25
	DD	imagerel $LN25+168
	DD	imagerel $unwind$?_Change_array@?$vector@URelocInfo@portable_executable@@V?$allocator@URelocInfo@portable_executable@@@std@@@std@@AEAAXQEAURelocInfo@portable_executable@@_K1@Z
pdata	ENDS
;	COMDAT pdata
pdata	SEGMENT
$pdata$?_Xlength@?$vector@URelocInfo@portable_executable@@V?$allocator@URelocInfo@portable_executable@@@std@@@std@@CAXXZ DD imagerel $LN4
	DD	imagerel $LN4+18
	DD	imagerel $unwind$?_Xlength@?$vector@URelocInfo@portable_executable@@V?$allocator@URelocInfo@portable_executable@@@std@@@std@@CAXXZ
pdata	ENDS
;	COMDAT pdata
pdata	SEGMENT
$pdata$?allocate@?$allocator@UImportInfo@portable_executable@@@std@@QEAAPEAUImportInfo@portable_executable@@_K@Z DD imagerel $LN30
	DD	imagerel $LN30+108
	DD	imagerel $unwind$?allocate@?$allocator@UImportInfo@portable_executable@@@std@@QEAAPEAUImportInfo@portable_executable@@_K@Z
pdata	ENDS
;	COMDAT pdata
pdata	SEGMENT
$pdata$?_Change_array@?$vector@UImportInfo@portable_executable@@V?$allocator@UImportInfo@portable_executable@@@std@@@std@@AEAAXQEAUImportInfo@portable_executable@@_K1@Z DD imagerel $LN41
	DD	imagerel $LN41+39
	DD	imagerel $unwind$?_Change_array@?$vector@UImportInfo@portable_executable@@V?$allocator@UImportInfo@portable_executable@@@std@@@std@@AEAAXQEAUImportInfo@portable_executable@@_K1@Z
pdata	ENDS
;	COMDAT pdata
pdata	SEGMENT
$pdata$0$?_Change_array@?$vector@UImportInfo@portable_executable@@V?$allocator@UImportInfo@portable_executable@@@std@@@std@@AEAAXQEAUImportInfo@portable_executable@@_K1@Z DD imagerel $LN41+39
	DD	imagerel $LN41+116
	DD	imagerel $chain$0$?_Change_array@?$vector@UImportInfo@portable_executable@@V?$allocator@UImportInfo@portable_executable@@@std@@@std@@AEAAXQEAUImportInfo@portable_executable@@_K1@Z
pdata	ENDS
;	COMDAT pdata
pdata	SEGMENT
$pdata$1$?_Change_array@?$vector@UImportInfo@portable_executable@@V?$allocator@UImportInfo@portable_executable@@@std@@@std@@AEAAXQEAUImportInfo@portable_executable@@_K1@Z DD imagerel $LN41+116
	DD	imagerel $LN41+200
	DD	imagerel $chain$1$?_Change_array@?$vector@UImportInfo@portable_executable@@V?$allocator@UImportInfo@portable_executable@@@std@@@std@@AEAAXQEAUImportInfo@portable_executable@@_K1@Z
pdata	ENDS
;	COMDAT pdata
pdata	SEGMENT
$pdata$?_Xlength@?$vector@UImportInfo@portable_executable@@V?$allocator@UImportInfo@portable_executable@@@std@@@std@@CAXXZ DD imagerel $LN4
	DD	imagerel $LN4+18
	DD	imagerel $unwind$?_Xlength@?$vector@UImportInfo@portable_executable@@V?$allocator@UImportInfo@portable_executable@@@std@@@std@@CAXXZ
pdata	ENDS
;	COMDAT pdata
pdata	SEGMENT
$pdata$??0ImportFunctionInfo@portable_executable@@QEAA@AEBU01@@Z DD imagerel $LN6
	DD	imagerel $LN6+43
	DD	imagerel $unwind$??0ImportFunctionInfo@portable_executable@@QEAA@AEBU01@@Z
pdata	ENDS
;	COMDAT pdata
pdata	SEGMENT
$pdata$??0ImportInfo@portable_executable@@QEAA@AEBU01@@Z DD imagerel $LN99
	DD	imagerel $LN99+207
	DD	imagerel $unwind$??0ImportInfo@portable_executable@@QEAA@AEBU01@@Z
pdata	ENDS
;	COMDAT pdata
pdata	SEGMENT
$pdata$??$_Reallocate_grow_by@V<lambda_55b0f89b53a0342680e40398a0d39887>@@_K_KPEBD_K@?$basic_string@DU?$char_traits@D@std@@V?$allocator@D@2@@std@@AEAAAEAV01@_KV<lambda_55b0f89b53a0342680e40398a0d39887>@@_K2PEBD2@Z DD imagerel $LN82
	DD	imagerel $LN82+46
	DD	imagerel $unwind$??$_Reallocate_grow_by@V<lambda_55b0f89b53a0342680e40398a0d39887>@@_K_KPEBD_K@?$basic_string@DU?$char_traits@D@std@@V?$allocator@D@2@@std@@AEAAAEAV01@_KV<lambda_55b0f89b53a0342680e40398a0d39887>@@_K2PEBD2@Z
pdata	ENDS
;	COMDAT pdata
pdata	SEGMENT
$pdata$3$??$_Reallocate_grow_by@V<lambda_55b0f89b53a0342680e40398a0d39887>@@_K_KPEBD_K@?$basic_string@DU?$char_traits@D@std@@V?$allocator@D@2@@std@@AEAAAEAV01@_KV<lambda_55b0f89b53a0342680e40398a0d39887>@@_K2PEBD2@Z DD imagerel $LN82+46
	DD	imagerel $LN82+436
	DD	imagerel $chain$3$??$_Reallocate_grow_by@V<lambda_55b0f89b53a0342680e40398a0d39887>@@_K_KPEBD_K@?$basic_string@DU?$char_traits@D@std@@V?$allocator@D@2@@std@@AEAAAEAV01@_KV<lambda_55b0f89b53a0342680e40398a0d39887>@@_K2PEBD2@Z
pdata	ENDS
;	COMDAT pdata
pdata	SEGMENT
$pdata$4$??$_Reallocate_grow_by@V<lambda_55b0f89b53a0342680e40398a0d39887>@@_K_KPEBD_K@?$basic_string@DU?$char_traits@D@std@@V?$allocator@D@2@@std@@AEAAAEAV01@_KV<lambda_55b0f89b53a0342680e40398a0d39887>@@_K2PEBD2@Z DD imagerel $LN82+436
	DD	imagerel $LN82+442
	DD	imagerel $chain$4$??$_Reallocate_grow_by@V<lambda_55b0f89b53a0342680e40398a0d39887>@@_K_KPEBD_K@?$basic_string@DU?$char_traits@D@std@@V?$allocator@D@2@@std@@AEAAAEAV01@_KV<lambda_55b0f89b53a0342680e40398a0d39887>@@_K2PEBD2@Z
pdata	ENDS
;	COMDAT pdata
pdata	SEGMENT
$pdata$5$??$_Reallocate_grow_by@V<lambda_55b0f89b53a0342680e40398a0d39887>@@_K_KPEBD_K@?$basic_string@DU?$char_traits@D@std@@V?$allocator@D@2@@std@@AEAAAEAV01@_KV<lambda_55b0f89b53a0342680e40398a0d39887>@@_K2PEBD2@Z DD imagerel $LN82+442
	DD	imagerel $LN82+448
	DD	imagerel $chain$5$??$_Reallocate_grow_by@V<lambda_55b0f89b53a0342680e40398a0d39887>@@_K_KPEBD_K@?$basic_string@DU?$char_traits@D@std@@V?$allocator@D@2@@std@@AEAAAEAV01@_KV<lambda_55b0f89b53a0342680e40398a0d39887>@@_K2PEBD2@Z
pdata	ENDS
;	COMDAT pdata
pdata	SEGMENT
$pdata$??$_Traits_find@U?$char_traits@D@std@@@std@@YA_KQEBD_K101@Z DD imagerel $LN23
	DD	imagerel $LN23+169
	DD	imagerel $unwind$??$_Traits_find@U?$char_traits@D@std@@@std@@YA_KQEBD_K101@Z
pdata	ENDS
;	COMDAT pdata
pdata	SEGMENT
$pdata$??$_Emplace_reallocate@AEBUImportFunctionInfo@portable_executable@@@?$vector@UImportFunctionInfo@portable_executable@@V?$allocator@UImportFunctionInfo@portable_executable@@@std@@@std@@QEAAPEAUImportFunctionInfo@portable_executable@@QEAU23@AEBU23@@Z DD imagerel $LN59
	DD	imagerel $LN59+432
	DD	imagerel $unwind$??$_Emplace_reallocate@AEBUImportFunctionInfo@portable_executable@@@?$vector@UImportFunctionInfo@portable_executable@@V?$allocator@UImportFunctionInfo@portable_executable@@@std@@@std@@QEAAPEAUImportFunctionInfo@portable_executable@@QEAU23@AEBU23@@Z
pdata	ENDS
;	COMDAT pdata
pdata	SEGMENT
$pdata$?catch$1@?0???$_Emplace_reallocate@AEBUImportFunctionInfo@portable_executable@@@?$vector@UImportFunctionInfo@portable_executable@@V?$allocator@UImportFunctionInfo@portable_executable@@@std@@@std@@QEAAPEAUImportFunctionInfo@portable_executable@@QEAU23@AEBU23@@Z@4HA DD imagerel ?catch$1@?0???$_Emplace_reallocate@AEBUImportFunctionInfo@portable_executable@@@?$vector@UImportFunctionInfo@portable_executable@@V?$allocator@UImportFunctionInfo@portable_executable@@@std@@@std@@QEAAPEAUImportFunctionInfo@portable_executable@@QEAU23@AEBU23@@Z@4HA
	DD	imagerel ?catch$1@?0???$_Emplace_reallocate@AEBUImportFunctionInfo@portable_executable@@@?$vector@UImportFunctionInfo@portable_executable@@V?$allocator@UImportFunctionInfo@portable_executable@@@std@@@std@@QEAAPEAUImportFunctionInfo@portable_executable@@QEAU23@AEBU23@@Z@4HA+52
	DD	imagerel $unwind$?catch$1@?0???$_Emplace_reallocate@AEBUImportFunctionInfo@portable_executable@@@?$vector@UImportFunctionInfo@portable_executable@@V?$allocator@UImportFunctionInfo@portable_executable@@@std@@@std@@QEAAPEAUImportFunctionInfo@portable_executable@@QEAU23@AEBU23@@Z@4HA
pdata	ENDS
;	COMDAT pdata
pdata	SEGMENT
$pdata$??$construct@UImportFunctionInfo@portable_executable@@AEBU12@@?$_Default_allocator_traits@V?$allocator@UImportFunctionInfo@portable_executable@@@std@@@std@@SAXAEAV?$allocator@UImportFunctionInfo@portable_executable@@@1@QEAUImportFunctionInfo@portable_executable@@AEBU34@@Z DD imagerel $LN8
	DD	imagerel $LN8+46
	DD	imagerel $unwind$??$construct@UImportFunctionInfo@portable_executable@@AEBU12@@?$_Default_allocator_traits@V?$allocator@UImportFunctionInfo@portable_executable@@@std@@@std@@SAXAEAV?$allocator@UImportFunctionInfo@portable_executable@@@1@QEAUImportFunctionInfo@portable_executable@@AEBU34@@Z
pdata	ENDS
;	COMDAT pdata
pdata	SEGMENT
$pdata$??$_Emplace_reallocate@AEBURelocInfo@portable_executable@@@?$vector@URelocInfo@portable_executable@@V?$allocator@URelocInfo@portable_executable@@@std@@@std@@QEAAPEAURelocInfo@portable_executable@@QEAU23@AEBU23@@Z DD imagerel $LN132
	DD	imagerel $LN132+111
	DD	imagerel $unwind$??$_Emplace_reallocate@AEBURelocInfo@portable_executable@@@?$vector@URelocInfo@portable_executable@@V?$allocator@URelocInfo@portable_executable@@@std@@@std@@QEAAPEAURelocInfo@portable_executable@@QEAU23@AEBU23@@Z
pdata	ENDS
;	COMDAT pdata
pdata	SEGMENT
$pdata$3$??$_Emplace_reallocate@AEBURelocInfo@portable_executable@@@?$vector@URelocInfo@portable_executable@@V?$allocator@URelocInfo@portable_executable@@@std@@@std@@QEAAPEAURelocInfo@portable_executable@@QEAU23@AEBU23@@Z DD imagerel $LN132+111
	DD	imagerel $LN132+484
	DD	imagerel $chain$3$??$_Emplace_reallocate@AEBURelocInfo@portable_executable@@@?$vector@URelocInfo@portable_executable@@V?$allocator@URelocInfo@portable_executable@@@std@@@std@@QEAAPEAURelocInfo@portable_executable@@QEAU23@AEBU23@@Z
pdata	ENDS
;	COMDAT pdata
pdata	SEGMENT
$pdata$5$??$_Emplace_reallocate@AEBURelocInfo@portable_executable@@@?$vector@URelocInfo@portable_executable@@V?$allocator@URelocInfo@portable_executable@@@std@@@std@@QEAAPEAURelocInfo@portable_executable@@QEAU23@AEBU23@@Z DD imagerel $LN132+484
	DD	imagerel $LN132+491
	DD	imagerel $chain$5$??$_Emplace_reallocate@AEBURelocInfo@portable_executable@@@?$vector@URelocInfo@portable_executable@@V?$allocator@URelocInfo@portable_executable@@@std@@@std@@QEAAPEAURelocInfo@portable_executable@@QEAU23@AEBU23@@Z
pdata	ENDS
;	COMDAT pdata
pdata	SEGMENT
$pdata$6$??$_Emplace_reallocate@AEBURelocInfo@portable_executable@@@?$vector@URelocInfo@portable_executable@@V?$allocator@URelocInfo@portable_executable@@@std@@@std@@QEAAPEAURelocInfo@portable_executable@@QEAU23@AEBU23@@Z DD imagerel $LN132+491
	DD	imagerel $LN132+497
	DD	imagerel $chain$6$??$_Emplace_reallocate@AEBURelocInfo@portable_executable@@@?$vector@URelocInfo@portable_executable@@V?$allocator@URelocInfo@portable_executable@@@std@@@std@@QEAAPEAURelocInfo@portable_executable@@QEAU23@AEBU23@@Z
pdata	ENDS
;	COMDAT pdata
pdata	SEGMENT
$pdata$7$??$_Emplace_reallocate@AEBURelocInfo@portable_executable@@@?$vector@URelocInfo@portable_executable@@V?$allocator@URelocInfo@portable_executable@@@std@@@std@@QEAAPEAURelocInfo@portable_executable@@QEAU23@AEBU23@@Z DD imagerel $LN132+497
	DD	imagerel $LN132+503
	DD	imagerel $chain$7$??$_Emplace_reallocate@AEBURelocInfo@portable_executable@@@?$vector@URelocInfo@portable_executable@@V?$allocator@URelocInfo@portable_executable@@@std@@@std@@QEAAPEAURelocInfo@portable_executable@@QEAU23@AEBU23@@Z
pdata	ENDS
;	COMDAT pdata
pdata	SEGMENT
$pdata$??$_Emplace_reallocate@AEBUImportInfo@portable_executable@@@?$vector@UImportInfo@portable_executable@@V?$allocator@UImportInfo@portable_executable@@@std@@@std@@QEAAPEAUImportInfo@portable_executable@@QEAU23@AEBU23@@Z DD imagerel $LN98
	DD	imagerel $LN98+538
	DD	imagerel $unwind$??$_Emplace_reallocate@AEBUImportInfo@portable_executable@@@?$vector@UImportInfo@portable_executable@@V?$allocator@UImportInfo@portable_executable@@@std@@@std@@QEAAPEAUImportInfo@portable_executable@@QEAU23@AEBU23@@Z
pdata	ENDS
;	COMDAT pdata
pdata	SEGMENT
$pdata$?catch$0@?0???$_Emplace_reallocate@AEBUImportInfo@portable_executable@@@?$vector@UImportInfo@portable_executable@@V?$allocator@UImportInfo@portable_executable@@@std@@@std@@QEAAPEAUImportInfo@portable_executable@@QEAU23@AEBU23@@Z@4HA DD imagerel ?catch$0@?0???$_Emplace_reallocate@AEBUImportInfo@portable_executable@@@?$vector@UImportInfo@portable_executable@@V?$allocator@UImportInfo@portable_executable@@@std@@@std@@QEAAPEAUImportInfo@portable_executable@@QEAU23@AEBU23@@Z@4HA
	DD	imagerel ?catch$0@?0???$_Emplace_reallocate@AEBUImportInfo@portable_executable@@@?$vector@UImportInfo@portable_executable@@V?$allocator@UImportInfo@portable_executable@@@std@@@std@@QEAAPEAUImportInfo@portable_executable@@QEAU23@AEBU23@@Z@4HA+52
	DD	imagerel $unwind$?catch$0@?0???$_Emplace_reallocate@AEBUImportInfo@portable_executable@@@?$vector@UImportInfo@portable_executable@@V?$allocator@UImportInfo@portable_executable@@@std@@@std@@QEAAPEAUImportInfo@portable_executable@@QEAU23@AEBU23@@Z@4HA
pdata	ENDS
;	COMDAT pdata
pdata	SEGMENT
$pdata$??$construct@UImportInfo@portable_executable@@AEBU12@@?$_Default_allocator_traits@V?$allocator@UImportInfo@portable_executable@@@std@@@std@@SAXAEAV?$allocator@UImportInfo@portable_executable@@@1@QEAUImportInfo@portable_executable@@AEBU34@@Z DD imagerel $LN102
	DD	imagerel $LN102+200
	DD	imagerel $unwind$??$construct@UImportInfo@portable_executable@@AEBU12@@?$_Default_allocator_traits@V?$allocator@UImportInfo@portable_executable@@@std@@@std@@SAXAEAV?$allocator@UImportInfo@portable_executable@@@1@QEAUImportInfo@portable_executable@@AEBU34@@Z
pdata	ENDS
;	COMDAT pdata
pdata	SEGMENT
$pdata$?_Move_assign@?$basic_string@DU?$char_traits@D@std@@V?$allocator@D@2@@std@@AEAAXAEAV12@U_Equal_allocators@2@@Z DD imagerel $LN44
	DD	imagerel $LN44+132
	DD	imagerel $unwind$?_Move_assign@?$basic_string@DU?$char_traits@D@std@@V?$allocator@D@2@@std@@AEAAXAEAV12@U_Equal_allocators@2@@Z
pdata	ENDS
;	COMDAT pdata
pdata	SEGMENT
$pdata$??R<lambda_55b0f89b53a0342680e40398a0d39887>@@QEBA@QEADQEBD_K2212@Z DD imagerel $LN11
	DD	imagerel $LN11+135
	DD	imagerel $unwind$??R<lambda_55b0f89b53a0342680e40398a0d39887>@@QEBA@QEADQEBD_K2212@Z
pdata	ENDS
;	COMDAT pdata
pdata	SEGMENT
$pdata$?replace@?$basic_string@DU?$char_traits@D@std@@V?$allocator@D@2@@std@@QEAAAEAV12@_K_KQEBD0@Z DD imagerel $LN55
	DD	imagerel $LN55+27
	DD	imagerel $unwind$?replace@?$basic_string@DU?$char_traits@D@std@@V?$allocator@D@2@@std@@QEAAAEAV12@_K_KQEBD0@Z
pdata	ENDS
;	COMDAT pdata
pdata	SEGMENT
$pdata$2$?replace@?$basic_string@DU?$char_traits@D@std@@V?$allocator@D@2@@std@@QEAAAEAV12@_K_KQEBD0@Z DD imagerel $LN55+27
	DD	imagerel $LN55+115
	DD	imagerel $chain$2$?replace@?$basic_string@DU?$char_traits@D@std@@V?$allocator@D@2@@std@@QEAAAEAV12@_K_KQEBD0@Z
pdata	ENDS
;	COMDAT pdata
pdata	SEGMENT
$pdata$3$?replace@?$basic_string@DU?$char_traits@D@std@@V?$allocator@D@2@@std@@QEAAAEAV12@_K_KQEBD0@Z DD imagerel $LN55+115
	DD	imagerel $LN55+195
	DD	imagerel $chain$3$?replace@?$basic_string@DU?$char_traits@D@std@@V?$allocator@D@2@@std@@QEAAAEAV12@_K_KQEBD0@Z
pdata	ENDS
;	COMDAT pdata
pdata	SEGMENT
$pdata$4$?replace@?$basic_string@DU?$char_traits@D@std@@V?$allocator@D@2@@std@@QEAAAEAV12@_K_KQEBD0@Z DD imagerel $LN55+195
	DD	imagerel $LN55+221
	DD	imagerel $chain$4$?replace@?$basic_string@DU?$char_traits@D@std@@V?$allocator@D@2@@std@@QEAAAEAV12@_K_KQEBD0@Z
pdata	ENDS
;	COMDAT pdata
pdata	SEGMENT
$pdata$5$?replace@?$basic_string@DU?$char_traits@D@std@@V?$allocator@D@2@@std@@QEAAAEAV12@_K_KQEBD0@Z DD imagerel $LN55+221
	DD	imagerel $LN55+353
	DD	imagerel $chain$5$?replace@?$basic_string@DU?$char_traits@D@std@@V?$allocator@D@2@@std@@QEAAAEAV12@_K_KQEBD0@Z
pdata	ENDS
;	COMDAT pdata
pdata	SEGMENT
$pdata$6$?replace@?$basic_string@DU?$char_traits@D@std@@V?$allocator@D@2@@std@@QEAAAEAV12@_K_KQEBD0@Z DD imagerel $LN55+353
	DD	imagerel $LN55+387
	DD	imagerel $chain$6$?replace@?$basic_string@DU?$char_traits@D@std@@V?$allocator@D@2@@std@@QEAAAEAV12@_K_KQEBD0@Z
pdata	ENDS
;	COMDAT pdata
pdata	SEGMENT
$pdata$7$?replace@?$basic_string@DU?$char_traits@D@std@@V?$allocator@D@2@@std@@QEAAAEAV12@_K_KQEBD0@Z DD imagerel $LN55+387
	DD	imagerel $LN55+392
	DD	imagerel $chain$7$?replace@?$basic_string@DU?$char_traits@D@std@@V?$allocator@D@2@@std@@QEAAAEAV12@_K_KQEBD0@Z
pdata	ENDS
;	COMDAT pdata
pdata	SEGMENT
$pdata$8$?replace@?$basic_string@DU?$char_traits@D@std@@V?$allocator@D@2@@std@@QEAAAEAV12@_K_KQEBD0@Z DD imagerel $LN55+392
	DD	imagerel $LN55+418
	DD	imagerel $chain$8$?replace@?$basic_string@DU?$char_traits@D@std@@V?$allocator@D@2@@std@@QEAAAEAV12@_K_KQEBD0@Z
pdata	ENDS
;	COMDAT pdata
pdata	SEGMENT
$pdata$9$?replace@?$basic_string@DU?$char_traits@D@std@@V?$allocator@D@2@@std@@QEAAAEAV12@_K_KQEBD0@Z DD imagerel $LN55+418
	DD	imagerel $LN55+424
	DD	imagerel $chain$9$?replace@?$basic_string@DU?$char_traits@D@std@@V?$allocator@D@2@@std@@QEAAAEAV12@_K_KQEBD0@Z
pdata	ENDS
;	COMDAT pdata
pdata	SEGMENT
$pdata$??4?$basic_string@DU?$char_traits@D@std@@V?$allocator@D@2@@std@@QEAAAEAV01@$$QEAV01@@Z DD imagerel $LN48
	DD	imagerel $LN48+140
	DD	imagerel $unwind$??4?$basic_string@DU?$char_traits@D@std@@V?$allocator@D@2@@std@@QEAAAEAV01@$$QEAV01@@Z
pdata	ENDS
;	COMDAT pdata
pdata	SEGMENT
$pdata$?replace@?$basic_string@DU?$char_traits@D@std@@V?$allocator@D@2@@std@@QEAAAEAV12@_K0AEBV12@@Z DD imagerel $LN10
	DD	imagerel $LN10+33
	DD	imagerel $unwind$?replace@?$basic_string@DU?$char_traits@D@std@@V?$allocator@D@2@@std@@QEAAAEAV12@_K0AEBV12@@Z
pdata	ENDS
;	COMDAT pdata
pdata	SEGMENT
$pdata$?find@?$basic_string@DU?$char_traits@D@std@@V?$allocator@D@2@@std@@QEBA_KQEBD_K@Z DD imagerel $LN35
	DD	imagerel $LN35+93
	DD	imagerel $unwind$?find@?$basic_string@DU?$char_traits@D@std@@V?$allocator@D@2@@std@@QEBA_KQEBD_K@Z
pdata	ENDS
;	COMDAT pdata
pdata	SEGMENT
$pdata$1$?find@?$basic_string@DU?$char_traits@D@std@@V?$allocator@D@2@@std@@QEBA_KQEBD_K@Z DD imagerel $LN35+93
	DD	imagerel $LN35+227
	DD	imagerel $chain$1$?find@?$basic_string@DU?$char_traits@D@std@@V?$allocator@D@2@@std@@QEBA_KQEBD_K@Z
pdata	ENDS
;	COMDAT pdata
pdata	SEGMENT
$pdata$3$?find@?$basic_string@DU?$char_traits@D@std@@V?$allocator@D@2@@std@@QEBA_KQEBD_K@Z DD imagerel $LN35+227
	DD	imagerel $LN35+235
	DD	imagerel $chain$3$?find@?$basic_string@DU?$char_traits@D@std@@V?$allocator@D@2@@std@@QEBA_KQEBD_K@Z
pdata	ENDS
;	COMDAT pdata
pdata	SEGMENT
$pdata$4$?find@?$basic_string@DU?$char_traits@D@std@@V?$allocator@D@2@@std@@QEBA_KQEBD_K@Z DD imagerel $LN35+235
	DD	imagerel $LN35+259
	DD	imagerel $chain$4$?find@?$basic_string@DU?$char_traits@D@std@@V?$allocator@D@2@@std@@QEBA_KQEBD_K@Z
pdata	ENDS
;	COMDAT pdata
pdata	SEGMENT
$pdata$??$_Emplace_back_with_unused_capacity@AEBUImportFunctionInfo@portable_executable@@@?$vector@UImportFunctionInfo@portable_executable@@V?$allocator@UImportFunctionInfo@portable_executable@@@std@@@std@@AEAA?A_TAEBUImportFunctionInfo@portable_executable@@@Z DD imagerel $LN10
	DD	imagerel $LN10+69
	DD	imagerel $unwind$??$_Emplace_back_with_unused_capacity@AEBUImportFunctionInfo@portable_executable@@@?$vector@UImportFunctionInfo@portable_executable@@V?$allocator@UImportFunctionInfo@portable_executable@@@std@@@std@@AEAA?A_TAEBUImportFunctionInfo@portable_executable@@@Z
pdata	ENDS
;	COMDAT pdata
pdata	SEGMENT
$pdata$??$emplace_back@AEBUImportFunctionInfo@portable_executable@@@?$vector@UImportFunctionInfo@portable_executable@@V?$allocator@UImportFunctionInfo@portable_executable@@@std@@@std@@QEAA?A_TAEBUImportFunctionInfo@portable_executable@@@Z DD imagerel $LN13
	DD	imagerel $LN13+101
	DD	imagerel $unwind$??$emplace_back@AEBUImportFunctionInfo@portable_executable@@@?$vector@UImportFunctionInfo@portable_executable@@V?$allocator@UImportFunctionInfo@portable_executable@@@std@@@std@@QEAA?A_TAEBUImportFunctionInfo@portable_executable@@@Z
pdata	ENDS
;	COMDAT pdata
pdata	SEGMENT
$pdata$?push_back@?$vector@UImportFunctionInfo@portable_executable@@V?$allocator@UImportFunctionInfo@portable_executable@@@std@@@std@@QEAAXAEBUImportFunctionInfo@portable_executable@@@Z DD imagerel $LN15
	DD	imagerel $LN15+94
	DD	imagerel $unwind$?push_back@?$vector@UImportFunctionInfo@portable_executable@@V?$allocator@UImportFunctionInfo@portable_executable@@@std@@@std@@QEAAXAEBUImportFunctionInfo@portable_executable@@@Z
pdata	ENDS
;	COMDAT pdata
pdata	SEGMENT
$pdata$??$_Emplace_back_with_unused_capacity@AEBUImportInfo@portable_executable@@@?$vector@UImportInfo@portable_executable@@V?$allocator@UImportInfo@portable_executable@@@std@@@std@@AEAA?A_TAEBUImportInfo@portable_executable@@@Z DD imagerel $LN4
	DD	imagerel $LN4+39
	DD	imagerel $unwind$??$_Emplace_back_with_unused_capacity@AEBUImportInfo@portable_executable@@@?$vector@UImportInfo@portable_executable@@V?$allocator@UImportInfo@portable_executable@@@std@@@std@@AEAA?A_TAEBUImportInfo@portable_executable@@@Z
pdata	ENDS
;	COMDAT pdata
pdata	SEGMENT
$pdata$??$emplace_back@AEBUImportInfo@portable_executable@@@?$vector@UImportInfo@portable_executable@@V?$allocator@UImportInfo@portable_executable@@@std@@@std@@QEAA?A_TAEBUImportInfo@portable_executable@@@Z DD imagerel $LN7
	DD	imagerel $LN7+55
	DD	imagerel $unwind$??$emplace_back@AEBUImportInfo@portable_executable@@@?$vector@UImportInfo@portable_executable@@V?$allocator@UImportInfo@portable_executable@@@std@@@std@@QEAA?A_TAEBUImportInfo@portable_executable@@@Z
pdata	ENDS
;	COMDAT pdata
pdata	SEGMENT
$pdata$?push_back@?$vector@UImportInfo@portable_executable@@V?$allocator@UImportInfo@portable_executable@@@std@@@std@@QEAAXAEBUImportInfo@portable_executable@@@Z DD imagerel $LN9
	DD	imagerel $LN9+48
	DD	imagerel $unwind$?push_back@?$vector@UImportInfo@portable_executable@@V?$allocator@UImportInfo@portable_executable@@@std@@@std@@QEAAXAEBUImportInfo@portable_executable@@@Z
pdata	ENDS
pdata	SEGMENT
$pdata$?get_kernel_export@util@@YAPEAXPEBD0_N@Z DD imagerel ?get_kernel_export@util@@YAPEAXPEBD0_N@Z
	DD	imagerel ?get_kernel_export@util@@YAPEAXPEBD0_N@Z+1337
	DD	imagerel $unwind$?get_kernel_export@util@@YAPEAXPEBD0_N@Z
$pdata$?get_imports@portable_executable@@YA?AV?$vector@UImportInfo@portable_executable@@V?$allocator@UImportInfo@portable_executable@@@std@@@std@@PEAX@Z DD imagerel $LN504
	DD	imagerel $LN504+1156
	DD	imagerel $unwind$?get_imports@portable_executable@@YA?AV?$vector@UImportInfo@portable_executable@@V?$allocator@UImportInfo@portable_executable@@@std@@@std@@PEAX@Z
$pdata$?relocate_image_by_delta@portable_executable@@YAXV?$vector@URelocInfo@portable_executable@@V?$allocator@URelocInfo@portable_executable@@@std@@@std@@_K@Z DD imagerel $LN48
	DD	imagerel $LN48+21
	DD	imagerel $unwind$?relocate_image_by_delta@portable_executable@@YAXV?$vector@URelocInfo@portable_executable@@V?$allocator@URelocInfo@portable_executable@@@std@@@std@@_K@Z
$pdata$1$?relocate_image_by_delta@portable_executable@@YAXV?$vector@URelocInfo@portable_executable@@V?$allocator@URelocInfo@portable_executable@@@std@@@std@@_K@Z DD imagerel $LN48+21
	DD	imagerel $LN48+130
	DD	imagerel $chain$1$?relocate_image_by_delta@portable_executable@@YAXV?$vector@URelocInfo@portable_executable@@V?$allocator@URelocInfo@portable_executable@@@std@@@std@@_K@Z
$pdata$2$?relocate_image_by_delta@portable_executable@@YAXV?$vector@URelocInfo@portable_executable@@V?$allocator@URelocInfo@portable_executable@@@std@@@std@@_K@Z DD imagerel $LN48+130
	DD	imagerel $LN48+242
	DD	imagerel $chain$2$?relocate_image_by_delta@portable_executable@@YAXV?$vector@URelocInfo@portable_executable@@V?$allocator@URelocInfo@portable_executable@@@std@@@std@@_K@Z
$pdata$?get_relocations@portable_executable@@YA?AV?$vector@URelocInfo@portable_executable@@V?$allocator@URelocInfo@portable_executable@@@std@@@std@@PEAX@Z DD imagerel $LN80
	DD	imagerel $LN80+269
	DD	imagerel $unwind$?get_relocations@portable_executable@@YA?AV?$vector@URelocInfo@portable_executable@@V?$allocator@URelocInfo@portable_executable@@@std@@@std@@PEAX@Z
$pdata$?resolve_imports@portable_executable@@YA_NV?$vector@UImportInfo@portable_executable@@V?$allocator@UImportInfo@portable_executable@@@std@@@std@@@Z DD imagerel $LN170
	DD	imagerel $LN170+745
	DD	imagerel $unwind$?resolve_imports@portable_executable@@YA_NV?$vector@UImportInfo@portable_executable@@V?$allocator@UImportInfo@portable_executable@@@std@@@std@@@Z
xdata	SEGMENT
$unwind$?get_kernel_export@util@@YAPEAXPEBD0_N@Z DD 0d3219H
	DD	01f7424H
	DD	01e6424H
	DD	01d3424H
	DD	0160124H
	DD	0e016f018H
	DD	0c012d014H
	DD	05010H
	DD	imagerel __GSHandlerCheck_EH4
	DD	imagerel $cppxdata$?get_kernel_export@util@@YAPEAXPEBD0_N@Z
	DD	0a2H
$cppxdata$?get_kernel_export@util@@YAPEAXPEBD0_N@Z DB 028H
	DD	imagerel $stateUnwindMap$?get_kernel_export@util@@YAPEAXPEBD0_N@Z
	DD	imagerel $ip2state$?get_kernel_export@util@@YAPEAXPEBD0_N@Z
$stateUnwindMap$?get_kernel_export@util@@YAPEAXPEBD0_N@Z DB 06H
	DB	0aH
	DD	imagerel ??1?$basic_string@DU?$char_traits@D@std@@V?$allocator@D@2@@std@@QEAA@XZ
	DB	01H
	DB	02H
	DB	03aH
	DD	imagerel ??1?$basic_string@DU?$char_traits@D@std@@V?$allocator@D@2@@std@@QEAA@XZ
	DB	080H
	DB	032H
	DD	imagerel ??1?$basic_string@DU?$char_traits@D@std@@V?$allocator@D@2@@std@@QEAA@XZ
	DB	0c0H
$ip2state$?get_kernel_export@util@@YAPEAXPEBD0_N@Z DB 0cH
	DB	'9', 04H
	DB	00H
	DB	0a2H
	DB	02H
	DB	084H
	DB	04H
	DB	0a8H
	DB	06H
	DB	0d1H, 02H
	DB	04H
	DB	'9', 06H
	DB	00H
$cppxdata$?get_imports@portable_executable@@YA?AV?$vector@UImportInfo@portable_executable@@V?$allocator@UImportInfo@portable_executable@@@std@@@std@@PEAX@Z DB 028H
	DD	imagerel $stateUnwindMap$?get_imports@portable_executable@@YA?AV?$vector@UImportInfo@portable_executable@@V?$allocator@UImportInfo@portable_executable@@@std@@@std@@PEAX@Z
	DD	imagerel $ip2state$?get_imports@portable_executable@@YA?AV?$vector@UImportInfo@portable_executable@@V?$allocator@UImportInfo@portable_executable@@@std@@@std@@PEAX@Z
$stateUnwindMap$?get_imports@portable_executable@@YA?AV?$vector@UImportInfo@portable_executable@@V?$allocator@UImportInfo@portable_executable@@@std@@@std@@PEAX@Z DB 0cH
	DB	0aH
	DD	imagerel ??1?$vector@UImportInfo@portable_executable@@V?$allocator@UImportInfo@portable_executable@@@std@@@std@@QEAA@XZ
	DB	050H
	DB	032H
	DD	imagerel ??1ImportInfo@portable_executable@@QEAA@XZ
	DB	021H
	DB	02H
	DB	03aH
	DD	imagerel ??1ImportFunctionInfo@portable_executable@@QEAA@XZ
	DB	0c0H
	DB	06cH
	DD	imagerel ??1?$basic_string@DU?$char_traits@D@std@@V?$allocator@D@2@@std@@QEAA@XZ
	DB	0a0H
	DB	032H
	DD	imagerel ??1?$_Tidy_guard@V?$vector@UImportFunctionInfo@portable_executable@@V?$allocator@UImportFunctionInfo@portable_executable@@@std@@@std@@@std@@QEAA@XZ
	DB	0b0H
	DB	032H
	DD	imagerel ??1?$_Uninitialized_backout_al@V?$allocator@UImportFunctionInfo@portable_executable@@@std@@@std@@QEAA@XZ
	DB	0c0H
$unwind$?get_imports@portable_executable@@YA?AV?$vector@UImportInfo@portable_executable@@V?$allocator@UImportInfo@portable_executable@@@std@@@std@@PEAX@Z DD 0b2a19H
	DD	024341cH
	DD	01a011cH
	DD	0e00ef010H
	DD	0c00ad00cH
	DD	060077008H
	DD	05006H
	DD	imagerel __GSHandlerCheck_EH4
	DD	imagerel $cppxdata$?get_imports@portable_executable@@YA?AV?$vector@UImportInfo@portable_executable@@V?$allocator@UImportInfo@portable_executable@@@std@@@std@@PEAX@Z
	DD	0c2H
$ip2state$?get_imports@portable_executable@@YA?AV?$vector@UImportInfo@portable_executable@@V?$allocator@UImportInfo@portable_executable@@@std@@@std@@PEAX@Z DB 012H
	DB	'y', 03H
	DB	04H
	DB	0c4H
	DB	06H
	DB	098H
	DB	04H
	DB	0ceH
	DB	08H
	DB	0c1H, 02H
	DB	0aH
	DB	'0'
	DB	0cH
	DB	090H
	DB	04H
	DB	'm', 05H
	DB	00H
	DB	'@'
	DB	08H
$cppxdata$?get_relocations@portable_executable@@YA?AV?$vector@URelocInfo@portable_executable@@V?$allocator@URelocInfo@portable_executable@@@std@@@std@@PEAX@Z DB 028H
	DD	imagerel $stateUnwindMap$?get_relocations@portable_executable@@YA?AV?$vector@URelocInfo@portable_executable@@V?$allocator@URelocInfo@portable_executable@@@std@@@std@@PEAX@Z
	DD	imagerel $ip2state$?get_relocations@portable_executable@@YA?AV?$vector@URelocInfo@portable_executable@@V?$allocator@URelocInfo@portable_executable@@@std@@@std@@PEAX@Z
$cppxdata$?resolve_imports@portable_executable@@YA_NV?$vector@UImportInfo@portable_executable@@V?$allocator@UImportInfo@portable_executable@@@std@@@std@@@Z DB 028H
	DD	imagerel $stateUnwindMap$?resolve_imports@portable_executable@@YA_NV?$vector@UImportInfo@portable_executable@@V?$allocator@UImportInfo@portable_executable@@@std@@@std@@@Z
	DD	imagerel $ip2state$?resolve_imports@portable_executable@@YA_NV?$vector@UImportInfo@portable_executable@@V?$allocator@UImportInfo@portable_executable@@@std@@@std@@@Z
$unwind$?relocate_image_by_delta@portable_executable@@YAXV?$vector@URelocInfo@portable_executable@@V?$allocator@URelocInfo@portable_executable@@@std@@@std@@_K@Z DD 020601H
	DD	030023206H
$chain$1$?relocate_image_by_delta@portable_executable@@YAXV?$vector@URelocInfo@portable_executable@@V?$allocator@URelocInfo@portable_executable@@@std@@@std@@_K@Z DD 040f21H
	DD	07740fH
	DD	066405H
	DD	imagerel $LN48
	DD	imagerel $LN48+21
	DD	imagerel $unwind$?relocate_image_by_delta@portable_executable@@YAXV?$vector@URelocInfo@portable_executable@@V?$allocator@URelocInfo@portable_executable@@@std@@@std@@_K@Z
$chain$2$?relocate_image_by_delta@portable_executable@@YAXV?$vector@URelocInfo@portable_executable@@V?$allocator@URelocInfo@portable_executable@@@std@@@std@@_K@Z DD 021H
	DD	imagerel $LN48
	DD	imagerel $LN48+21
	DD	imagerel $unwind$?relocate_image_by_delta@portable_executable@@YAXV?$vector@URelocInfo@portable_executable@@V?$allocator@URelocInfo@portable_executable@@@std@@@std@@_K@Z
$unwind$?get_relocations@portable_executable@@YA?AV?$vector@URelocInfo@portable_executable@@V?$allocator@URelocInfo@portable_executable@@@std@@@std@@PEAX@Z DD 060f11H
	DD	0d640fH
	DD	0c340fH
	DD	0700b920fH
	DD	imagerel __CxxFrameHandler4
	DD	imagerel $cppxdata$?get_relocations@portable_executable@@YA?AV?$vector@URelocInfo@portable_executable@@V?$allocator@URelocInfo@portable_executable@@@std@@@std@@PEAX@Z
$stateUnwindMap$?get_relocations@portable_executable@@YA?AV?$vector@URelocInfo@portable_executable@@V?$allocator@URelocInfo@portable_executable@@@std@@@std@@PEAX@Z DB 02H
	DB	0aH
	DD	imagerel ??1?$vector@URelocInfo@portable_executable@@V?$allocator@URelocInfo@portable_executable@@@std@@@std@@QEAA@XZ
	DB	040H
$ip2state$?get_relocations@portable_executable@@YA?AV?$vector@URelocInfo@portable_executable@@V?$allocator@URelocInfo@portable_executable@@@std@@@std@@PEAX@Z DB 02H
	DB	0bdH, 02H
	DB	02H
	ORG $+1
$unwind$?resolve_imports@portable_executable@@YA_NV?$vector@UImportInfo@portable_executable@@V?$allocator@UImportInfo@portable_executable@@@std@@@std@@@Z DD 0c2b19H
	DD	015641cH
	DD	014541cH
	DD	013341cH
	DD	0f018b21cH
	DD	0d014e016H
	DD	07010c012H
	DD	imagerel __GSHandlerCheck_EH4
	DD	imagerel $cppxdata$?resolve_imports@portable_executable@@YA_NV?$vector@UImportInfo@portable_executable@@V?$allocator@UImportInfo@portable_executable@@@std@@@std@@@Z
	DD	052H
$stateUnwindMap$?resolve_imports@portable_executable@@YA_NV?$vector@UImportInfo@portable_executable@@V?$allocator@UImportInfo@portable_executable@@@std@@@std@@@Z DB 02H
	DB	0cH
	DD	imagerel ??1?$vector@UImportInfo@portable_executable@@V?$allocator@UImportInfo@portable_executable@@@std@@@std@@QEAA@XZ
	DB	050H
$ip2state$?resolve_imports@portable_executable@@YA_NV?$vector@UImportInfo@portable_executable@@V?$allocator@UImportInfo@portable_executable@@@std@@@std@@@Z DB 04H
	DB	085H, 04H
	DB	02H
	DB	01H, 05H
	DB	00H
xdata	ENDS
;	COMDAT xdata
xdata	SEGMENT
$unwind$?push_back@?$vector@UImportInfo@portable_executable@@V?$allocator@UImportInfo@portable_executable@@@std@@@std@@QEAAXAEBUImportInfo@portable_executable@@@Z DD 020601H
	DD	030023206H
xdata	ENDS
;	COMDAT xdata
xdata	SEGMENT
$unwind$??$emplace_back@AEBUImportInfo@portable_executable@@@?$vector@UImportInfo@portable_executable@@V?$allocator@UImportInfo@portable_executable@@@std@@@std@@QEAA?A_TAEBUImportInfo@portable_executable@@@Z DD 020601H
	DD	030023206H
xdata	ENDS
;	COMDAT xdata
xdata	SEGMENT
$unwind$??$_Emplace_back_with_unused_capacity@AEBUImportInfo@portable_executable@@@?$vector@UImportInfo@portable_executable@@V?$allocator@UImportInfo@portable_executable@@@std@@@std@@AEAA?A_TAEBUImportInfo@portable_executable@@@Z DD 020601H
	DD	030023206H
xdata	ENDS
;	COMDAT xdata
xdata	SEGMENT
$unwind$?push_back@?$vector@UImportFunctionInfo@portable_executable@@V?$allocator@UImportFunctionInfo@portable_executable@@@std@@@std@@QEAAXAEBUImportFunctionInfo@portable_executable@@@Z DD 060f01H
	DD	07640fH
	DD	06340fH
	DD	0700b320fH
xdata	ENDS
;	COMDAT xdata
xdata	SEGMENT
$unwind$??$emplace_back@AEBUImportFunctionInfo@portable_executable@@@?$vector@UImportFunctionInfo@portable_executable@@V?$allocator@UImportFunctionInfo@portable_executable@@@std@@@std@@QEAA?A_TAEBUImportFunctionInfo@portable_executable@@@Z DD 060f01H
	DD	07640fH
	DD	06340fH
	DD	0700b320fH
xdata	ENDS
;	COMDAT xdata
xdata	SEGMENT
$unwind$??$_Emplace_back_with_unused_capacity@AEBUImportFunctionInfo@portable_executable@@@?$vector@UImportFunctionInfo@portable_executable@@V?$allocator@UImportFunctionInfo@portable_executable@@@std@@@std@@AEAA?A_TAEBUImportFunctionInfo@portable_executable@@@Z DD 060f01H
	DD	07640fH
	DD	06340fH
	DD	0700b320fH
xdata	ENDS
;	COMDAT xdata
xdata	SEGMENT
$chain$4$?find@?$basic_string@DU?$char_traits@D@std@@V?$allocator@D@2@@std@@QEBA_KQEBD_K@Z DD 021H
	DD	imagerel $LN35
	DD	imagerel $LN35+93
	DD	imagerel $unwind$?find@?$basic_string@DU?$char_traits@D@std@@V?$allocator@D@2@@std@@QEBA_KQEBD_K@Z
xdata	ENDS
;	COMDAT xdata
xdata	SEGMENT
$chain$3$?find@?$basic_string@DU?$char_traits@D@std@@V?$allocator@D@2@@std@@QEBA_KQEBD_K@Z DD 040021H
	DD	077400H
	DD	065400H
	DD	imagerel $LN35
	DD	imagerel $LN35+93
	DD	imagerel $unwind$?find@?$basic_string@DU?$char_traits@D@std@@V?$allocator@D@2@@std@@QEBA_KQEBD_K@Z
xdata	ENDS
;	COMDAT xdata
xdata	SEGMENT
$chain$1$?find@?$basic_string@DU?$char_traits@D@std@@V?$allocator@D@2@@std@@QEBA_KQEBD_K@Z DD 040f21H
	DD	07740fH
	DD	065405H
	DD	imagerel $LN35
	DD	imagerel $LN35+93
	DD	imagerel $unwind$?find@?$basic_string@DU?$char_traits@D@std@@V?$allocator@D@2@@std@@QEBA_KQEBD_K@Z
xdata	ENDS
;	COMDAT xdata
xdata	SEGMENT
$unwind$?find@?$basic_string@DU?$char_traits@D@std@@V?$allocator@D@2@@std@@QEBA_KQEBD_K@Z DD 061001H
	DD	096410H
	DD	083410H
	DD	0e00c3210H
xdata	ENDS
;	COMDAT xdata
xdata	SEGMENT
$unwind$?replace@?$basic_string@DU?$char_traits@D@std@@V?$allocator@D@2@@std@@QEAAAEAV12@_K0AEBV12@@Z DD 010401H
	DD	06204H
xdata	ENDS
;	COMDAT xdata
xdata	SEGMENT
$unwind$??4?$basic_string@DU?$char_traits@D@std@@V?$allocator@D@2@@std@@QEAAAEAV01@$$QEAV01@@Z DD 040a01H
	DD	06340aH
	DD	07006320aH
xdata	ENDS
;	COMDAT xdata
xdata	SEGMENT
$chain$9$?replace@?$basic_string@DU?$char_traits@D@std@@V?$allocator@D@2@@std@@QEAAAEAV12@_K_KQEBD0@Z DD 021H
	DD	imagerel $LN55
	DD	imagerel $LN55+27
	DD	imagerel $unwind$?replace@?$basic_string@DU?$char_traits@D@std@@V?$allocator@D@2@@std@@QEAAAEAV12@_K_KQEBD0@Z
xdata	ENDS
;	COMDAT xdata
xdata	SEGMENT
$chain$8$?replace@?$basic_string@DU?$char_traits@D@std@@V?$allocator@D@2@@std@@QEAAAEAV12@_K_KQEBD0@Z DD 021H
	DD	imagerel $LN55+27
	DD	imagerel $LN55+115
	DD	imagerel $chain$2$?replace@?$basic_string@DU?$char_traits@D@std@@V?$allocator@D@2@@std@@QEAAAEAV12@_K_KQEBD0@Z
xdata	ENDS
;	COMDAT xdata
xdata	SEGMENT
$chain$7$?replace@?$basic_string@DU?$char_traits@D@std@@V?$allocator@D@2@@std@@QEAAAEAV12@_K_KQEBD0@Z DD 021H
	DD	imagerel $LN55+115
	DD	imagerel $LN55+195
	DD	imagerel $chain$3$?replace@?$basic_string@DU?$char_traits@D@std@@V?$allocator@D@2@@std@@QEAAAEAV12@_K_KQEBD0@Z
xdata	ENDS
;	COMDAT xdata
xdata	SEGMENT
$chain$6$?replace@?$basic_string@DU?$char_traits@D@std@@V?$allocator@D@2@@std@@QEAAAEAV12@_K_KQEBD0@Z DD 021H
	DD	imagerel $LN55+195
	DD	imagerel $LN55+221
	DD	imagerel $chain$4$?replace@?$basic_string@DU?$char_traits@D@std@@V?$allocator@D@2@@std@@QEAAAEAV12@_K_KQEBD0@Z
xdata	ENDS
;	COMDAT xdata
xdata	SEGMENT
$chain$5$?replace@?$basic_string@DU?$char_traits@D@std@@V?$allocator@D@2@@std@@QEAAAEAV12@_K_KQEBD0@Z DD 020521H
	DD	09d405H
	DD	imagerel $LN55+195
	DD	imagerel $LN55+221
	DD	imagerel $chain$4$?replace@?$basic_string@DU?$char_traits@D@std@@V?$allocator@D@2@@std@@QEAAAEAV12@_K_KQEBD0@Z
xdata	ENDS
;	COMDAT xdata
xdata	SEGMENT
$chain$4$?replace@?$basic_string@DU?$char_traits@D@std@@V?$allocator@D@2@@std@@QEAAAEAV12@_K_KQEBD0@Z DD 020521H
	DD	0ac405H
	DD	imagerel $LN55+115
	DD	imagerel $LN55+195
	DD	imagerel $chain$3$?replace@?$basic_string@DU?$char_traits@D@std@@V?$allocator@D@2@@std@@QEAAAEAV12@_K_KQEBD0@Z
xdata	ENDS
;	COMDAT xdata
xdata	SEGMENT
$chain$3$?replace@?$basic_string@DU?$char_traits@D@std@@V?$allocator@D@2@@std@@QEAAAEAV12@_K_KQEBD0@Z DD 020521H
	DD	0e3405H
	DD	imagerel $LN55+27
	DD	imagerel $LN55+115
	DD	imagerel $chain$2$?replace@?$basic_string@DU?$char_traits@D@std@@V?$allocator@D@2@@std@@QEAAAEAV12@_K_KQEBD0@Z
xdata	ENDS
;	COMDAT xdata
xdata	SEGMENT
$chain$2$?replace@?$basic_string@DU?$char_traits@D@std@@V?$allocator@D@2@@std@@QEAAAEAV12@_K_KQEBD0@Z DD 061f21H
	DD	08f41fH
	DD	0106412H
	DD	0f5405H
	DD	imagerel $LN55
	DD	imagerel $LN55+27
	DD	imagerel $unwind$?replace@?$basic_string@DU?$char_traits@D@std@@V?$allocator@D@2@@std@@QEAAAEAV12@_K_KQEBD0@Z
xdata	ENDS
;	COMDAT xdata
xdata	SEGMENT
$unwind$?replace@?$basic_string@DU?$char_traits@D@std@@V?$allocator@D@2@@std@@QEAAAEAV12@_K_KQEBD0@Z DD 030801H
	DD	0e004a208H
	DD	07002H
xdata	ENDS
;	COMDAT xdata
xdata	SEGMENT
$unwind$??R<lambda_55b0f89b53a0342680e40398a0d39887>@@QEBA@QEADQEBD_K2212@Z DD 0a1a01H
	DD	09741aH
	DD	08641aH
	DD	07541aH
	DD	06341aH
	DD	0e016321aH
xdata	ENDS
;	COMDAT xdata
xdata	SEGMENT
$unwind$?_Move_assign@?$basic_string@DU?$char_traits@D@std@@V?$allocator@D@2@@std@@AEAAXAEAV12@U_Equal_allocators@2@@Z DD 040a01H
	DD	06340aH
	DD	07006320aH
xdata	ENDS
;	COMDAT xdata
xdata	SEGMENT
$ip2state$??$construct@UImportInfo@portable_executable@@AEBU12@@?$_Default_allocator_traits@V?$allocator@UImportInfo@portable_executable@@@std@@@std@@SAXAEAV?$allocator@UImportInfo@portable_executable@@@1@QEAUImportInfo@portable_executable@@AEBU34@@Z DB 06H
	DB	'F'
	DB	00H
	DB	'~'
	DB	02H
	DB	'j'
	DB	06H
xdata	ENDS
;	COMDAT xdata
xdata	SEGMENT
$stateUnwindMap$??$construct@UImportInfo@portable_executable@@AEBU12@@?$_Default_allocator_traits@V?$allocator@UImportInfo@portable_executable@@@std@@@std@@SAXAEAV?$allocator@UImportInfo@portable_executable@@@1@QEAUImportInfo@portable_executable@@AEBU34@@Z DB 06H
	DB	0cH
	DD	imagerel ??1?$basic_string@DU?$char_traits@D@std@@V?$allocator@D@2@@std@@QEAA@XZ
	DB	0c0H
	DB	032H
	DD	imagerel ??1?$_Tidy_guard@V?$vector@UImportFunctionInfo@portable_executable@@V?$allocator@UImportFunctionInfo@portable_executable@@@std@@@std@@@std@@QEAA@XZ
	DB	0d0H
	DB	032H
	DD	imagerel ??1?$_Uninitialized_backout_al@V?$allocator@UImportFunctionInfo@portable_executable@@@std@@@std@@QEAA@XZ
	DB	040H
xdata	ENDS
;	COMDAT xdata
xdata	SEGMENT
$cppxdata$??$construct@UImportInfo@portable_executable@@AEBU12@@?$_Default_allocator_traits@V?$allocator@UImportInfo@portable_executable@@@std@@@std@@SAXAEAV?$allocator@UImportInfo@portable_executable@@@1@QEAUImportInfo@portable_executable@@AEBU34@@Z DB 028H
	DD	imagerel $stateUnwindMap$??$construct@UImportInfo@portable_executable@@AEBU12@@?$_Default_allocator_traits@V?$allocator@UImportInfo@portable_executable@@@std@@@std@@SAXAEAV?$allocator@UImportInfo@portable_executable@@@1@QEAUImportInfo@portable_executable@@AEBU34@@Z
	DD	imagerel $ip2state$??$construct@UImportInfo@portable_executable@@AEBU12@@?$_Default_allocator_traits@V?$allocator@UImportInfo@portable_executable@@@std@@@std@@SAXAEAV?$allocator@UImportInfo@portable_executable@@@1@QEAUImportInfo@portable_executable@@AEBU34@@Z
xdata	ENDS
;	COMDAT xdata
xdata	SEGMENT
$unwind$??$construct@UImportInfo@portable_executable@@AEBU12@@?$_Default_allocator_traits@V?$allocator@UImportInfo@portable_executable@@@std@@@std@@SAXAEAV?$allocator@UImportInfo@portable_executable@@@1@QEAUImportInfo@portable_executable@@AEBU34@@Z DD 061211H
	DD	0e3412H
	DD	0e00e7212H
	DD	0600b700cH
	DD	imagerel __CxxFrameHandler4
	DD	imagerel $cppxdata$??$construct@UImportInfo@portable_executable@@AEBU12@@?$_Default_allocator_traits@V?$allocator@UImportInfo@portable_executable@@@std@@@std@@SAXAEAV?$allocator@UImportInfo@portable_executable@@@1@QEAUImportInfo@portable_executable@@AEBU34@@Z
xdata	ENDS
;	COMDAT xdata
xdata	SEGMENT
$unwind$?catch$0@?0???$_Emplace_reallocate@AEBUImportInfo@portable_executable@@@?$vector@UImportInfo@portable_executable@@V?$allocator@UImportInfo@portable_executable@@@std@@@std@@QEAAPEAUImportInfo@portable_executable@@QEAU23@AEBU23@@Z@4HA DD 020a01H
	DD	05006320aH
xdata	ENDS
;	COMDAT xdata
xdata	SEGMENT
$ip2state$??$_Emplace_reallocate@AEBUImportInfo@portable_executable@@@?$vector@UImportInfo@portable_executable@@V?$allocator@UImportInfo@portable_executable@@@std@@@std@@QEAAPEAUImportInfo@portable_executable@@QEAU23@AEBU23@@Z DB 06H
	DB	'M', 03H
	DB	00H
	DB	0c4H
	DB	02H
	DB	'x'
	DB	00H
xdata	ENDS
;	COMDAT xdata
xdata	SEGMENT
$handlerMap$??$_Emplace_reallocate@AEBUImportInfo@portable_executable@@@?$vector@UImportInfo@portable_executable@@V?$allocator@UImportInfo@portable_executable@@@std@@@std@@QEAAPEAUImportInfo@portable_executable@@QEAU23@AEBU23@@Z DB 02H
	DB	01H
	DB	080H
	DD	imagerel ?catch$0@?0???$_Emplace_reallocate@AEBUImportInfo@portable_executable@@@?$vector@UImportInfo@portable_executable@@V?$allocator@UImportInfo@portable_executable@@@std@@@std@@QEAAPEAUImportInfo@portable_executable@@QEAU23@AEBU23@@Z@4HA
xdata	ENDS
;	COMDAT xdata
xdata	SEGMENT
$tryMap$??$_Emplace_reallocate@AEBUImportInfo@portable_executable@@@?$vector@UImportInfo@portable_executable@@V?$allocator@UImportInfo@portable_executable@@@std@@@std@@QEAAPEAUImportInfo@portable_executable@@QEAU23@AEBU23@@Z DB 02H
	DB	00H
	DB	00H
	DB	02H
	DD	imagerel $handlerMap$??$_Emplace_reallocate@AEBUImportInfo@portable_executable@@@?$vector@UImportInfo@portable_executable@@V?$allocator@UImportInfo@portable_executable@@@std@@@std@@QEAAPEAUImportInfo@portable_executable@@QEAU23@AEBU23@@Z
xdata	ENDS
;	COMDAT xdata
xdata	SEGMENT
$stateUnwindMap$??$_Emplace_reallocate@AEBUImportInfo@portable_executable@@@?$vector@UImportInfo@portable_executable@@V?$allocator@UImportInfo@portable_executable@@@std@@@std@@QEAAPEAUImportInfo@portable_executable@@QEAU23@AEBU23@@Z DB 04H
	DB	08H
	DB	010H
xdata	ENDS
;	COMDAT xdata
xdata	SEGMENT
$cppxdata$??$_Emplace_reallocate@AEBUImportInfo@portable_executable@@@?$vector@UImportInfo@portable_executable@@V?$allocator@UImportInfo@portable_executable@@@std@@@std@@QEAAPEAUImportInfo@portable_executable@@QEAU23@AEBU23@@Z DB 038H
	DD	imagerel $stateUnwindMap$??$_Emplace_reallocate@AEBUImportInfo@portable_executable@@@?$vector@UImportInfo@portable_executable@@V?$allocator@UImportInfo@portable_executable@@@std@@@std@@QEAAPEAUImportInfo@portable_executable@@QEAU23@AEBU23@@Z
	DD	imagerel $tryMap$??$_Emplace_reallocate@AEBUImportInfo@portable_executable@@@?$vector@UImportInfo@portable_executable@@V?$allocator@UImportInfo@portable_executable@@@std@@@std@@QEAAPEAUImportInfo@portable_executable@@QEAU23@AEBU23@@Z
	DD	imagerel $ip2state$??$_Emplace_reallocate@AEBUImportInfo@portable_executable@@@?$vector@UImportInfo@portable_executable@@V?$allocator@UImportInfo@portable_executable@@@std@@@std@@QEAAPEAUImportInfo@portable_executable@@QEAU23@AEBU23@@Z
xdata	ENDS
;	COMDAT xdata
xdata	SEGMENT
$unwind$??$_Emplace_reallocate@AEBUImportInfo@portable_executable@@@?$vector@UImportInfo@portable_executable@@V?$allocator@UImportInfo@portable_executable@@@std@@@std@@QEAAPEAUImportInfo@portable_executable@@QEAU23@AEBU23@@Z DD 081419H
	DD	0f0105214H
	DD	0d00ce00eH
	DD	07008c00aH
	DD	030066007H
	DD	imagerel __CxxFrameHandler4
	DD	imagerel $cppxdata$??$_Emplace_reallocate@AEBUImportInfo@portable_executable@@@?$vector@UImportInfo@portable_executable@@V?$allocator@UImportInfo@portable_executable@@@std@@@std@@QEAAPEAUImportInfo@portable_executable@@QEAU23@AEBU23@@Z
xdata	ENDS
;	COMDAT xdata
xdata	SEGMENT
$chain$7$??$_Emplace_reallocate@AEBURelocInfo@portable_executable@@@?$vector@URelocInfo@portable_executable@@V?$allocator@URelocInfo@portable_executable@@@std@@@std@@QEAAPEAURelocInfo@portable_executable@@QEAU23@AEBU23@@Z DD 080021H
	DD	04e400H
	DD	0c6400H
	DD	0b5400H
	DD	0a3400H
	DD	imagerel $LN132
	DD	imagerel $LN132+111
	DD	imagerel $unwind$??$_Emplace_reallocate@AEBURelocInfo@portable_executable@@@?$vector@URelocInfo@portable_executable@@V?$allocator@URelocInfo@portable_executable@@@std@@@std@@QEAAPEAURelocInfo@portable_executable@@QEAU23@AEBU23@@Z
xdata	ENDS
;	COMDAT xdata
xdata	SEGMENT
$chain$6$??$_Emplace_reallocate@AEBURelocInfo@portable_executable@@@?$vector@URelocInfo@portable_executable@@V?$allocator@URelocInfo@portable_executable@@@std@@@std@@QEAAPEAURelocInfo@portable_executable@@QEAU23@AEBU23@@Z DD 021H
	DD	imagerel $LN132
	DD	imagerel $LN132+111
	DD	imagerel $unwind$??$_Emplace_reallocate@AEBURelocInfo@portable_executable@@@?$vector@URelocInfo@portable_executable@@V?$allocator@URelocInfo@portable_executable@@@std@@@std@@QEAAPEAURelocInfo@portable_executable@@QEAU23@AEBU23@@Z
xdata	ENDS
;	COMDAT xdata
xdata	SEGMENT
$chain$5$??$_Emplace_reallocate@AEBURelocInfo@portable_executable@@@?$vector@URelocInfo@portable_executable@@V?$allocator@URelocInfo@portable_executable@@@std@@@std@@QEAAPEAURelocInfo@portable_executable@@QEAU23@AEBU23@@Z DD 080021H
	DD	04e400H
	DD	0c6400H
	DD	0b5400H
	DD	0a3400H
	DD	imagerel $LN132
	DD	imagerel $LN132+111
	DD	imagerel $unwind$??$_Emplace_reallocate@AEBURelocInfo@portable_executable@@@?$vector@URelocInfo@portable_executable@@V?$allocator@URelocInfo@portable_executable@@@std@@@std@@QEAAPEAURelocInfo@portable_executable@@QEAU23@AEBU23@@Z
xdata	ENDS
;	COMDAT xdata
xdata	SEGMENT
$chain$3$??$_Emplace_reallocate@AEBURelocInfo@portable_executable@@@?$vector@URelocInfo@portable_executable@@V?$allocator@URelocInfo@portable_executable@@@std@@@std@@QEAAPEAURelocInfo@portable_executable@@QEAU23@AEBU23@@Z DD 082221H
	DD	04e422H
	DD	0c6417H
	DD	0b5412H
	DD	0a3405H
	DD	imagerel $LN132
	DD	imagerel $LN132+111
	DD	imagerel $unwind$??$_Emplace_reallocate@AEBURelocInfo@portable_executable@@@?$vector@URelocInfo@portable_executable@@V?$allocator@URelocInfo@portable_executable@@@std@@@std@@QEAAPEAURelocInfo@portable_executable@@QEAU23@AEBU23@@Z
xdata	ENDS
;	COMDAT xdata
xdata	SEGMENT
$unwind$??$_Emplace_reallocate@AEBURelocInfo@portable_executable@@@?$vector@URelocInfo@portable_executable@@V?$allocator@URelocInfo@portable_executable@@@std@@@std@@QEAAPEAURelocInfo@portable_executable@@QEAU23@AEBU23@@Z DD 050c01H
	DD	0f008420cH
	DD	0c004d006H
	DD	07002H
xdata	ENDS
;	COMDAT xdata
xdata	SEGMENT
$unwind$??$construct@UImportFunctionInfo@portable_executable@@AEBU12@@?$_Default_allocator_traits@V?$allocator@UImportFunctionInfo@portable_executable@@@std@@@std@@SAXAEAV?$allocator@UImportFunctionInfo@portable_executable@@@1@QEAUImportFunctionInfo@portable_executable@@AEBU34@@Z DD 040a01H
	DD	06340aH
	DD	07006320aH
xdata	ENDS
;	COMDAT xdata
xdata	SEGMENT
$unwind$?catch$1@?0???$_Emplace_reallocate@AEBUImportFunctionInfo@portable_executable@@@?$vector@UImportFunctionInfo@portable_executable@@V?$allocator@UImportFunctionInfo@portable_executable@@@std@@@std@@QEAAPEAUImportFunctionInfo@portable_executable@@QEAU23@AEBU23@@Z@4HA DD 020a01H
	DD	05006320aH
xdata	ENDS
;	COMDAT xdata
xdata	SEGMENT
$ip2state$??$_Emplace_reallocate@AEBUImportFunctionInfo@portable_executable@@@?$vector@UImportFunctionInfo@portable_executable@@V?$allocator@UImportFunctionInfo@portable_executable@@@std@@@std@@QEAAPEAUImportFunctionInfo@portable_executable@@QEAU23@AEBU23@@Z DB 06H
	DB	08dH, 02H
	DB	00H
	DB	'b'
	DB	02H
	DB	'Y', 03H
	DB	00H
xdata	ENDS
;	COMDAT xdata
xdata	SEGMENT
$handlerMap$??$_Emplace_reallocate@AEBUImportFunctionInfo@portable_executable@@@?$vector@UImportFunctionInfo@portable_executable@@V?$allocator@UImportFunctionInfo@portable_executable@@@std@@@std@@QEAAPEAUImportFunctionInfo@portable_executable@@QEAU23@AEBU23@@Z DB 02H
	DB	01H
	DB	080H
	DD	imagerel ?catch$1@?0???$_Emplace_reallocate@AEBUImportFunctionInfo@portable_executable@@@?$vector@UImportFunctionInfo@portable_executable@@V?$allocator@UImportFunctionInfo@portable_executable@@@std@@@std@@QEAAPEAUImportFunctionInfo@portable_executable@@QEAU23@AEBU23@@Z@4HA
xdata	ENDS
;	COMDAT xdata
xdata	SEGMENT
$tryMap$??$_Emplace_reallocate@AEBUImportFunctionInfo@portable_executable@@@?$vector@UImportFunctionInfo@portable_executable@@V?$allocator@UImportFunctionInfo@portable_executable@@@std@@@std@@QEAAPEAUImportFunctionInfo@portable_executable@@QEAU23@AEBU23@@Z DB 02H
	DB	00H
	DB	00H
	DB	02H
	DD	imagerel $handlerMap$??$_Emplace_reallocate@AEBUImportFunctionInfo@portable_executable@@@?$vector@UImportFunctionInfo@portable_executable@@V?$allocator@UImportFunctionInfo@portable_executable@@@std@@@std@@QEAAPEAUImportFunctionInfo@portable_executable@@QEAU23@AEBU23@@Z
xdata	ENDS
;	COMDAT xdata
xdata	SEGMENT
$stateUnwindMap$??$_Emplace_reallocate@AEBUImportFunctionInfo@portable_executable@@@?$vector@UImportFunctionInfo@portable_executable@@V?$allocator@UImportFunctionInfo@portable_executable@@@std@@@std@@QEAAPEAUImportFunctionInfo@portable_executable@@QEAU23@AEBU23@@Z DB 04H
	DB	08H
	DB	010H
xdata	ENDS
;	COMDAT xdata
xdata	SEGMENT
$cppxdata$??$_Emplace_reallocate@AEBUImportFunctionInfo@portable_executable@@@?$vector@UImportFunctionInfo@portable_executable@@V?$allocator@UImportFunctionInfo@portable_executable@@@std@@@std@@QEAAPEAUImportFunctionInfo@portable_executable@@QEAU23@AEBU23@@Z DB 038H
	DD	imagerel $stateUnwindMap$??$_Emplace_reallocate@AEBUImportFunctionInfo@portable_executable@@@?$vector@UImportFunctionInfo@portable_executable@@V?$allocator@UImportFunctionInfo@portable_executable@@@std@@@std@@QEAAPEAUImportFunctionInfo@portable_executable@@QEAU23@AEBU23@@Z
	DD	imagerel $tryMap$??$_Emplace_reallocate@AEBUImportFunctionInfo@portable_executable@@@?$vector@UImportFunctionInfo@portable_executable@@V?$allocator@UImportFunctionInfo@portable_executable@@@std@@@std@@QEAAPEAUImportFunctionInfo@portable_executable@@QEAU23@AEBU23@@Z
	DD	imagerel $ip2state$??$_Emplace_reallocate@AEBUImportFunctionInfo@portable_executable@@@?$vector@UImportFunctionInfo@portable_executable@@V?$allocator@UImportFunctionInfo@portable_executable@@@std@@@std@@QEAAPEAUImportFunctionInfo@portable_executable@@QEAU23@AEBU23@@Z
xdata	ENDS
;	COMDAT xdata
xdata	SEGMENT
$unwind$??$_Emplace_reallocate@AEBUImportFunctionInfo@portable_executable@@@?$vector@UImportFunctionInfo@portable_executable@@V?$allocator@UImportFunctionInfo@portable_executable@@@std@@@std@@QEAAPEAUImportFunctionInfo@portable_executable@@QEAU23@AEBU23@@Z DD 081419H
	DD	0f0105214H
	DD	0d00ce00eH
	DD	07008c00aH
	DD	030066007H
	DD	imagerel __CxxFrameHandler4
	DD	imagerel $cppxdata$??$_Emplace_reallocate@AEBUImportFunctionInfo@portable_executable@@@?$vector@UImportFunctionInfo@portable_executable@@V?$allocator@UImportFunctionInfo@portable_executable@@@std@@@std@@QEAAPEAUImportFunctionInfo@portable_executable@@QEAU23@AEBU23@@Z
xdata	ENDS
;	COMDAT xdata
xdata	SEGMENT
$unwind$??$_Traits_find@U?$char_traits@D@std@@@std@@YA_KQEBD_K101@Z DD 081401H
	DD	086414H
	DD	075414H
	DD	063414H
	DD	070103214H
xdata	ENDS
;	COMDAT xdata
xdata	SEGMENT
$chain$5$??$_Reallocate_grow_by@V<lambda_55b0f89b53a0342680e40398a0d39887>@@_K_KPEBD_K@?$basic_string@DU?$char_traits@D@std@@V?$allocator@D@2@@std@@AEAAAEAV01@_KV<lambda_55b0f89b53a0342680e40398a0d39887>@@_K2PEBD2@Z DD 080021H
	DD	04d400H
	DD	0dc400H
	DD	0c7400H
	DD	0b5400H
	DD	imagerel $LN82
	DD	imagerel $LN82+46
	DD	imagerel $unwind$??$_Reallocate_grow_by@V<lambda_55b0f89b53a0342680e40398a0d39887>@@_K_KPEBD_K@?$basic_string@DU?$char_traits@D@std@@V?$allocator@D@2@@std@@AEAAAEAV01@_KV<lambda_55b0f89b53a0342680e40398a0d39887>@@_K2PEBD2@Z
xdata	ENDS
;	COMDAT xdata
xdata	SEGMENT
$chain$4$??$_Reallocate_grow_by@V<lambda_55b0f89b53a0342680e40398a0d39887>@@_K_KPEBD_K@?$basic_string@DU?$char_traits@D@std@@V?$allocator@D@2@@std@@AEAAAEAV01@_KV<lambda_55b0f89b53a0342680e40398a0d39887>@@_K2PEBD2@Z DD 021H
	DD	imagerel $LN82
	DD	imagerel $LN82+46
	DD	imagerel $unwind$??$_Reallocate_grow_by@V<lambda_55b0f89b53a0342680e40398a0d39887>@@_K_KPEBD_K@?$basic_string@DU?$char_traits@D@std@@V?$allocator@D@2@@std@@AEAAAEAV01@_KV<lambda_55b0f89b53a0342680e40398a0d39887>@@_K2PEBD2@Z
xdata	ENDS
;	COMDAT xdata
xdata	SEGMENT
$chain$3$??$_Reallocate_grow_by@V<lambda_55b0f89b53a0342680e40398a0d39887>@@_K_KPEBD_K@?$basic_string@DU?$char_traits@D@std@@V?$allocator@D@2@@std@@AEAAAEAV01@_KV<lambda_55b0f89b53a0342680e40398a0d39887>@@_K2PEBD2@Z DD 081f21H
	DD	04d41fH
	DD	0dc413H
	DD	0c740eH
	DD	0b5405H
	DD	imagerel $LN82
	DD	imagerel $LN82+46
	DD	imagerel $unwind$??$_Reallocate_grow_by@V<lambda_55b0f89b53a0342680e40398a0d39887>@@_K_KPEBD_K@?$basic_string@DU?$char_traits@D@std@@V?$allocator@D@2@@std@@AEAAAEAV01@_KV<lambda_55b0f89b53a0342680e40398a0d39887>@@_K2PEBD2@Z
xdata	ENDS
;	COMDAT xdata
xdata	SEGMENT
$unwind$??$_Reallocate_grow_by@V<lambda_55b0f89b53a0342680e40398a0d39887>@@_K_KPEBD_K@?$basic_string@DU?$char_traits@D@std@@V?$allocator@D@2@@std@@AEAAAEAV01@_KV<lambda_55b0f89b53a0342680e40398a0d39887>@@_K2PEBD2@Z DD 050b01H
	DD	0f007420bH
	DD	06003e005H
	DD	03002H
xdata	ENDS
;	COMDAT xdata
xdata	SEGMENT
$ip2state$??0ImportInfo@portable_executable@@QEAA@AEBU01@@Z DB 06H
	DB	':'
	DB	00H
	DB	'~'
	DB	02H
	DB	't'
	DB	06H
xdata	ENDS
;	COMDAT xdata
xdata	SEGMENT
$stateUnwindMap$??0ImportInfo@portable_executable@@QEAA@AEBU01@@Z DB 06H
	DB	0cH
	DD	imagerel ??1?$basic_string@DU?$char_traits@D@std@@V?$allocator@D@2@@std@@QEAA@XZ
	DB	0c0H
	DB	032H
	DD	imagerel ??1?$_Tidy_guard@V?$vector@UImportFunctionInfo@portable_executable@@V?$allocator@UImportFunctionInfo@portable_executable@@@std@@@std@@@std@@QEAA@XZ
	DB	0d0H
	DB	032H
	DD	imagerel ??1?$_Uninitialized_backout_al@V?$allocator@UImportFunctionInfo@portable_executable@@@std@@@std@@QEAA@XZ
	DB	040H
xdata	ENDS
;	COMDAT xdata
xdata	SEGMENT
$cppxdata$??0ImportInfo@portable_executable@@QEAA@AEBU01@@Z DB 028H
	DD	imagerel $stateUnwindMap$??0ImportInfo@portable_executable@@QEAA@AEBU01@@Z
	DD	imagerel $ip2state$??0ImportInfo@portable_executable@@QEAA@AEBU01@@Z
xdata	ENDS
;	COMDAT xdata
xdata	SEGMENT
$unwind$??0ImportInfo@portable_executable@@QEAA@AEBU01@@Z DD 081711H
	DD	0f5417H
	DD	0e3417H
	DD	0e0137217H
	DD	060107011H
	DD	imagerel __CxxFrameHandler4
	DD	imagerel $cppxdata$??0ImportInfo@portable_executable@@QEAA@AEBU01@@Z
xdata	ENDS
;	COMDAT xdata
xdata	SEGMENT
$unwind$??0ImportFunctionInfo@portable_executable@@QEAA@AEBU01@@Z DD 040a01H
	DD	06340aH
	DD	07006320aH
xdata	ENDS
;	COMDAT xdata
xdata	SEGMENT
$unwind$?_Xlength@?$vector@UImportInfo@portable_executable@@V?$allocator@UImportInfo@portable_executable@@@std@@@std@@CAXXZ DD 010401H
	DD	04204H
xdata	ENDS
;	COMDAT xdata
xdata	SEGMENT
$chain$1$?_Change_array@?$vector@UImportInfo@portable_executable@@V?$allocator@UImportInfo@portable_executable@@@std@@@std@@AEAAXQEAUImportInfo@portable_executable@@_K1@Z DD 021H
	DD	imagerel $LN41
	DD	imagerel $LN41+39
	DD	imagerel $unwind$?_Change_array@?$vector@UImportInfo@portable_executable@@V?$allocator@UImportInfo@portable_executable@@@std@@@std@@AEAAXQEAUImportInfo@portable_executable@@_K1@Z
xdata	ENDS
;	COMDAT xdata
xdata	SEGMENT
$chain$0$?_Change_array@?$vector@UImportInfo@portable_executable@@V?$allocator@UImportInfo@portable_executable@@@std@@@std@@AEAAXQEAUImportInfo@portable_executable@@_K1@Z DD 020521H
	DD	086405H
	DD	imagerel $LN41
	DD	imagerel $LN41+39
	DD	imagerel $unwind$?_Change_array@?$vector@UImportInfo@portable_executable@@V?$allocator@UImportInfo@portable_executable@@@std@@@std@@AEAAXQEAUImportInfo@portable_executable@@_K1@Z
xdata	ENDS
;	COMDAT xdata
xdata	SEGMENT
$unwind$?_Change_array@?$vector@UImportInfo@portable_executable@@V?$allocator@UImportInfo@portable_executable@@@std@@@std@@AEAAXQEAUImportInfo@portable_executable@@_K1@Z DD 081301H
	DD	0a5413H
	DD	093413H
	DD	0f00f3213H
	DD	0700be00dH
xdata	ENDS
;	COMDAT xdata
xdata	SEGMENT
$unwind$?allocate@?$allocator@UImportInfo@portable_executable@@@std@@QEAAPEAUImportInfo@portable_executable@@_K@Z DD 010401H
	DD	04204H
xdata	ENDS
;	COMDAT xdata
xdata	SEGMENT
$unwind$?_Xlength@?$vector@URelocInfo@portable_executable@@V?$allocator@URelocInfo@portable_executable@@@std@@@std@@CAXXZ DD 010401H
	DD	04204H
xdata	ENDS
;	COMDAT xdata
xdata	SEGMENT
$unwind$?_Change_array@?$vector@URelocInfo@portable_executable@@V?$allocator@URelocInfo@portable_executable@@@std@@@std@@AEAAXQEAURelocInfo@portable_executable@@_K1@Z DD 081501H
	DD	087415H
	DD	076415H
	DD	063415H
	DD	0e0113215H
xdata	ENDS
;	COMDAT xdata
xdata	SEGMENT
$unwind$?_Umove@?$vector@URelocInfo@portable_executable@@V?$allocator@URelocInfo@portable_executable@@@std@@@std@@AEAAPEAURelocInfo@portable_executable@@PEAU34@00@Z DD 040a01H
	DD	06340aH
	DD	07006320aH
xdata	ENDS
;	COMDAT xdata
xdata	SEGMENT
$unwind$?allocate@?$allocator@URelocInfo@portable_executable@@@std@@QEAAPEAURelocInfo@portable_executable@@_K@Z DD 010401H
	DD	04204H
xdata	ENDS
;	COMDAT xdata
xdata	SEGMENT
$unwind$?_Xlength@?$vector@UImportFunctionInfo@portable_executable@@V?$allocator@UImportFunctionInfo@portable_executable@@@std@@@std@@CAXXZ DD 010401H
	DD	04204H
xdata	ENDS
;	COMDAT xdata
xdata	SEGMENT
$unwind$?_Change_array@?$vector@UImportFunctionInfo@portable_executable@@V?$allocator@UImportFunctionInfo@portable_executable@@@std@@@std@@AEAAXQEAUImportFunctionInfo@portable_executable@@_K1@Z DD 081501H
	DD	087415H
	DD	076415H
	DD	063415H
	DD	0e0113215H
xdata	ENDS
;	COMDAT xdata
xdata	SEGMENT
$ip2state$??0?$vector@UImportFunctionInfo@portable_executable@@V?$allocator@UImportFunctionInfo@portable_executable@@@std@@@std@@QEAA@AEBV01@@Z DB 04H
	DB	092H
	DB	00H
	DB	'z'
	DB	04H
xdata	ENDS
;	COMDAT xdata
xdata	SEGMENT
$stateUnwindMap$??0?$vector@UImportFunctionInfo@portable_executable@@V?$allocator@UImportFunctionInfo@portable_executable@@@std@@@std@@QEAA@AEBV01@@Z DB 04H
	DB	0aH
	DD	imagerel ??1?$_Tidy_guard@V?$vector@UImportFunctionInfo@portable_executable@@V?$allocator@UImportFunctionInfo@portable_executable@@@std@@@std@@@std@@QEAA@XZ
	DB	0c0H
	DB	032H
	DD	imagerel ??1?$_Uninitialized_backout_al@V?$allocator@UImportFunctionInfo@portable_executable@@@std@@@std@@QEAA@XZ
	DB	040H
xdata	ENDS
;	COMDAT xdata
xdata	SEGMENT
$cppxdata$??0?$vector@UImportFunctionInfo@portable_executable@@V?$allocator@UImportFunctionInfo@portable_executable@@@std@@@std@@QEAA@AEBV01@@Z DB 028H
	DD	imagerel $stateUnwindMap$??0?$vector@UImportFunctionInfo@portable_executable@@V?$allocator@UImportFunctionInfo@portable_executable@@@std@@@std@@QEAA@AEBV01@@Z
	DD	imagerel $ip2state$??0?$vector@UImportFunctionInfo@portable_executable@@V?$allocator@UImportFunctionInfo@portable_executable@@@std@@@std@@QEAA@AEBV01@@Z
xdata	ENDS
;	COMDAT xdata
xdata	SEGMENT
$unwind$??0?$vector@UImportFunctionInfo@portable_executable@@V?$allocator@UImportFunctionInfo@portable_executable@@@std@@@std@@QEAA@AEBV01@@Z DD 081211H
	DD	0e5412H
	DD	0d3412H
	DD	0e00e7212H
	DD	0600b700cH
	DD	imagerel __CxxFrameHandler4
	DD	imagerel $cppxdata$??0?$vector@UImportFunctionInfo@portable_executable@@V?$allocator@UImportFunctionInfo@portable_executable@@@std@@@std@@QEAA@AEBV01@@Z
xdata	ENDS
;	COMDAT xdata
xdata	SEGMENT
$unwind$?allocate@?$allocator@UImportFunctionInfo@portable_executable@@@std@@QEAAPEAUImportFunctionInfo@portable_executable@@_K@Z DD 010401H
	DD	04204H
xdata	ENDS
;	COMDAT xdata
xdata	SEGMENT
$unwind$?_Buy_raw@?$vector@UImportFunctionInfo@portable_executable@@V?$allocator@UImportFunctionInfo@portable_executable@@@std@@@std@@AEAAX_K@Z DD 040a01H
	DD	06340aH
	DD	07006320aH
xdata	ENDS
;	COMDAT xdata
xdata	SEGMENT
$chain$1$??$_Uninitialized_move@PEAUImportInfo@portable_executable@@V?$allocator@UImportInfo@portable_executable@@@std@@@std@@YAPEAUImportInfo@portable_executable@@QEAU12@0PEAU12@AEAV?$allocator@UImportInfo@portable_executable@@@0@@Z DD 021H
	DD	imagerel $LN77
	DD	imagerel $LN77+18
	DD	imagerel $unwind$??$_Uninitialized_move@PEAUImportInfo@portable_executable@@V?$allocator@UImportInfo@portable_executable@@@std@@@std@@YAPEAUImportInfo@portable_executable@@QEAU12@0PEAU12@AEAV?$allocator@UImportInfo@portable_executable@@@0@@Z
xdata	ENDS
;	COMDAT xdata
xdata	SEGMENT
$chain$0$??$_Uninitialized_move@PEAUImportInfo@portable_executable@@V?$allocator@UImportInfo@portable_executable@@@std@@@std@@YAPEAUImportInfo@portable_executable@@QEAU12@0PEAU12@AEAV?$allocator@UImportInfo@portable_executable@@@0@@Z DD 020421H
	DD	03404H
	DD	imagerel $LN77
	DD	imagerel $LN77+18
	DD	imagerel $unwind$??$_Uninitialized_move@PEAUImportInfo@portable_executable@@V?$allocator@UImportInfo@portable_executable@@@std@@@std@@YAPEAUImportInfo@portable_executable@@QEAU12@0PEAU12@AEAV?$allocator@UImportInfo@portable_executable@@@0@@Z
xdata	ENDS
;	COMDAT xdata
xdata	SEGMENT
$unwind$??$_Uninitialized_move@PEAUImportInfo@portable_executable@@V?$allocator@UImportInfo@portable_executable@@@std@@@std@@YAPEAUImportInfo@portable_executable@@QEAU12@0PEAU12@AEAV?$allocator@UImportInfo@portable_executable@@@0@@Z DD 010401H
	DD	0204H
xdata	ENDS
;	COMDAT xdata
xdata	SEGMENT
$unwind$??$_Get_size_of_n@$0DI@@std@@YA_K_K@Z DD 010401H
	DD	04204H
xdata	ENDS
;	COMDAT xdata
xdata	SEGMENT
$unwind$??$_Uninitialized_move@PEAURelocInfo@portable_executable@@V?$allocator@URelocInfo@portable_executable@@@std@@@std@@YAPEAURelocInfo@portable_executable@@QEAU12@0PEAU12@AEAV?$allocator@URelocInfo@portable_executable@@@0@@Z DD 040a01H
	DD	06340aH
	DD	07006320aH
xdata	ENDS
;	COMDAT xdata
xdata	SEGMENT
$unwind$??$_Get_size_of_n@$0BI@@std@@YA_K_K@Z DD 010401H
	DD	04204H
xdata	ENDS
;	COMDAT xdata
xdata	SEGMENT
$unwind$??$_Uninitialized_move@PEAUImportFunctionInfo@portable_executable@@V?$allocator@UImportFunctionInfo@portable_executable@@@std@@@std@@YAPEAUImportFunctionInfo@portable_executable@@QEAU12@0PEAU12@AEAV?$allocator@UImportFunctionInfo@portable_executable@@@0@@Z DD 020601H
	DD	030023206H
xdata	ENDS
;	COMDAT xdata
xdata	SEGMENT
$ip2state$??$_Ucopy@PEAUImportFunctionInfo@portable_executable@@@?$vector@UImportFunctionInfo@portable_executable@@V?$allocator@UImportFunctionInfo@portable_executable@@@std@@@std@@AEAAPEAUImportFunctionInfo@portable_executable@@PEAU23@00@Z DB 02H
	DB	'l'
	DB	02H
xdata	ENDS
;	COMDAT xdata
xdata	SEGMENT
$stateUnwindMap$??$_Ucopy@PEAUImportFunctionInfo@portable_executable@@@?$vector@UImportFunctionInfo@portable_executable@@V?$allocator@UImportFunctionInfo@portable_executable@@@std@@@std@@AEAAPEAUImportFunctionInfo@portable_executable@@PEAU23@00@Z DB 02H
	DB	0aH
	DD	imagerel ??1?$_Uninitialized_backout_al@V?$allocator@UImportFunctionInfo@portable_executable@@@std@@@std@@QEAA@XZ
	DB	040H
xdata	ENDS
;	COMDAT xdata
xdata	SEGMENT
$cppxdata$??$_Ucopy@PEAUImportFunctionInfo@portable_executable@@@?$vector@UImportFunctionInfo@portable_executable@@V?$allocator@UImportFunctionInfo@portable_executable@@@std@@@std@@AEAAPEAUImportFunctionInfo@portable_executable@@PEAU23@00@Z DB 028H
	DD	imagerel $stateUnwindMap$??$_Ucopy@PEAUImportFunctionInfo@portable_executable@@@?$vector@UImportFunctionInfo@portable_executable@@V?$allocator@UImportFunctionInfo@portable_executable@@@std@@@std@@AEAAPEAUImportFunctionInfo@portable_executable@@PEAU23@00@Z
	DD	imagerel $ip2state$??$_Ucopy@PEAUImportFunctionInfo@portable_executable@@@?$vector@UImportFunctionInfo@portable_executable@@V?$allocator@UImportFunctionInfo@portable_executable@@@std@@@std@@AEAAPEAUImportFunctionInfo@portable_executable@@PEAU23@00@Z
xdata	ENDS
;	COMDAT xdata
xdata	SEGMENT
$unwind$??$_Ucopy@PEAUImportFunctionInfo@portable_executable@@@?$vector@UImportFunctionInfo@portable_executable@@V?$allocator@UImportFunctionInfo@portable_executable@@@std@@@std@@AEAAPEAUImportFunctionInfo@portable_executable@@PEAU23@00@Z DD 060f11H
	DD	0b640fH
	DD	0a340fH
	DD	0700b720fH
	DD	imagerel __CxxFrameHandler4
	DD	imagerel $cppxdata$??$_Ucopy@PEAUImportFunctionInfo@portable_executable@@@?$vector@UImportFunctionInfo@portable_executable@@V?$allocator@UImportFunctionInfo@portable_executable@@@std@@@std@@AEAAPEAUImportFunctionInfo@portable_executable@@PEAU23@00@Z
xdata	ENDS
;	COMDAT xdata
xdata	SEGMENT
$unwind$??$_Get_size_of_n@$0CI@@std@@YA_K_K@Z DD 010401H
	DD	04204H
xdata	ENDS
;	COMDAT xdata
xdata	SEGMENT
$unwind$??1?$_Uninitialized_backout_al@V?$allocator@UImportInfo@portable_executable@@@std@@@std@@QEAA@XZ DD 040a01H
	DD	06340aH
	DD	07006320aH
xdata	ENDS
;	COMDAT xdata
xdata	SEGMENT
$unwind$??$_Copy_memmove@PEAURelocInfo@portable_executable@@PEAU12@@std@@YAPEAURelocInfo@portable_executable@@PEAU12@00@Z DD 040a01H
	DD	06340aH
	DD	07006320aH
xdata	ENDS
;	COMDAT xdata
xdata	SEGMENT
$ip2state$??$_Uninitialized_copy@PEAUImportFunctionInfo@portable_executable@@V?$allocator@UImportFunctionInfo@portable_executable@@@std@@@std@@YAPEAUImportFunctionInfo@portable_executable@@QEAU12@0PEAU12@AEAV?$allocator@UImportFunctionInfo@portable_executable@@@0@@Z DB 02H
	DB	'l'
	DB	02H
xdata	ENDS
;	COMDAT xdata
xdata	SEGMENT
$stateUnwindMap$??$_Uninitialized_copy@PEAUImportFunctionInfo@portable_executable@@V?$allocator@UImportFunctionInfo@portable_executable@@@std@@@std@@YAPEAUImportFunctionInfo@portable_executable@@QEAU12@0PEAU12@AEAV?$allocator@UImportFunctionInfo@portable_executable@@@0@@Z DB 02H
	DB	0aH
	DD	imagerel ??1?$_Uninitialized_backout_al@V?$allocator@UImportFunctionInfo@portable_executable@@@std@@@std@@QEAA@XZ
	DB	040H
xdata	ENDS
;	COMDAT xdata
xdata	SEGMENT
$cppxdata$??$_Uninitialized_copy@PEAUImportFunctionInfo@portable_executable@@V?$allocator@UImportFunctionInfo@portable_executable@@@std@@@std@@YAPEAUImportFunctionInfo@portable_executable@@QEAU12@0PEAU12@AEAV?$allocator@UImportFunctionInfo@portable_executable@@@0@@Z DB 028H
	DD	imagerel $stateUnwindMap$??$_Uninitialized_copy@PEAUImportFunctionInfo@portable_executable@@V?$allocator@UImportFunctionInfo@portable_executable@@@std@@@std@@YAPEAUImportFunctionInfo@portable_executable@@QEAU12@0PEAU12@AEAV?$allocator@UImportFunctionInfo@portable_executable@@@0@@Z
	DD	imagerel $ip2state$??$_Uninitialized_copy@PEAUImportFunctionInfo@portable_executable@@V?$allocator@UImportFunctionInfo@portable_executable@@@std@@@std@@YAPEAUImportFunctionInfo@portable_executable@@QEAU12@0PEAU12@AEAV?$allocator@UImportFunctionInfo@portable_executable@@@0@@Z
xdata	ENDS
;	COMDAT xdata
xdata	SEGMENT
$unwind$??$_Uninitialized_copy@PEAUImportFunctionInfo@portable_executable@@V?$allocator@UImportFunctionInfo@portable_executable@@@std@@@std@@YAPEAUImportFunctionInfo@portable_executable@@QEAU12@0PEAU12@AEAV?$allocator@UImportFunctionInfo@portable_executable@@@0@@Z DD 060f11H
	DD	0b640fH
	DD	0a340fH
	DD	0700b720fH
	DD	imagerel __CxxFrameHandler4
	DD	imagerel $cppxdata$??$_Uninitialized_copy@PEAUImportFunctionInfo@portable_executable@@V?$allocator@UImportFunctionInfo@portable_executable@@@std@@@std@@YAPEAUImportFunctionInfo@portable_executable@@QEAU12@0PEAU12@AEAV?$allocator@UImportFunctionInfo@portable_executable@@@0@@Z
xdata	ENDS
;	COMDAT xdata
xdata	SEGMENT
$unwind$??$_Emplace_back@AEAUImportFunctionInfo@portable_executable@@@?$_Uninitialized_backout_al@V?$allocator@UImportFunctionInfo@portable_executable@@@std@@@std@@QEAAXAEAUImportFunctionInfo@portable_executable@@@Z DD 060f01H
	DD	07640fH
	DD	06340fH
	DD	0700b320fH
xdata	ENDS
;	COMDAT xdata
xdata	SEGMENT
$unwind$??$construct@UImportFunctionInfo@portable_executable@@AEAU12@@?$_Default_allocator_traits@V?$allocator@UImportFunctionInfo@portable_executable@@@std@@@std@@SAXAEAV?$allocator@UImportFunctionInfo@portable_executable@@@1@QEAUImportFunctionInfo@portable_executable@@AEAU34@@Z DD 040a01H
	DD	06340aH
	DD	07006320aH
; Function compile flags: /Ogtpy
; File C:\Users\vin\Downloads\ApexIsAssWithEAC-main\ApexIsAssWithEAC-main\sinmapper\drv_image.cpp
; File C:\Program Files (x86)\Microsoft Visual Studio\2019\Community\VC\Tools\MSVC\14.29.30133\include\xstring
; File C:\Users\vin\Downloads\ApexIsAssWithEAC-main\ApexIsAssWithEAC-main\sinmapper\util.hpp
; File C:\Program Files (x86)\Microsoft Visual Studio\2019\Community\VC\Tools\MSVC\14.29.30133\include\xstring
; File C:\Users\vin\Downloads\ApexIsAssWithEAC-main\ApexIsAssWithEAC-main\sinmapper\util.hpp
; File C:\Program Files (x86)\Microsoft Visual Studio\2019\Community\VC\Tools\MSVC\14.29.30133\include\xstring
; File C:\Program Files (x86)\Microsoft Visual Studio\2019\Community\VC\Tools\MSVC\14.29.30133\include\xmemory
; File C:\Users\vin\Downloads\ApexIsAssWithEAC-main\ApexIsAssWithEAC-main\sinmapper\util.hpp
; File C:\Program Files (x86)\Microsoft Visual Studio\2019\Community\VC\Tools\MSVC\14.29.30133\include\xstring
; File C:\Program Files (x86)\Microsoft Visual Studio\2019\Community\VC\Tools\MSVC\14.29.30133\include\xmemory
; File C:\Users\vin\Downloads\ApexIsAssWithEAC-main\ApexIsAssWithEAC-main\sinmapper\drv_image.cpp
; File C:\Program Files (x86)\Microsoft Visual Studio\2019\Community\VC\Tools\MSVC\14.29.30133\include\xstring
; File C:\Users\vin\Downloads\ApexIsAssWithEAC-main\ApexIsAssWithEAC-main\sinmapper\drv_image.cpp
; File C:\Program Files (x86)\Microsoft Visual Studio\2019\Community\VC\Tools\MSVC\14.29.30133\include\xmemory
; File C:\Program Files (x86)\Microsoft Visual Studio\2019\Community\VC\Tools\MSVC\14.29.30133\include\xstring
; File C:\Users\vin\Downloads\ApexIsAssWithEAC-main\ApexIsAssWithEAC-main\sinmapper\drv_image.cpp
; File C:\Program Files (x86)\Microsoft Visual Studio\2019\Community\VC\Tools\MSVC\14.29.30133\include\xstring
; File C:\Users\vin\Downloads\ApexIsAssWithEAC-main\ApexIsAssWithEAC-main\sinmapper\drv_image.cpp
_TEXT	SEGMENT
buffer_size$1 = 32
imports$GSCopy$ = 40
current_module_name$2 = 48
__$ArrayPad$ = 80
imports$ = 144
?resolve_imports@portable_executable@@YA_NV?$vector@UImportInfo@portable_executable@@V?$allocator@UImportInfo@portable_executable@@@std@@@std@@@Z PROC ; portable_executable::resolve_imports

; 21   : 	{

$LN170:
  00000	48 89 5c 24 10	 mov	 QWORD PTR [rsp+16], rbx
  00005	48 89 6c 24 18	 mov	 QWORD PTR [rsp+24], rbp
  0000a	48 89 74 24 20	 mov	 QWORD PTR [rsp+32], rsi
  0000f	57		 push	 rdi
  00010	41 54		 push	 r12
  00012	41 55		 push	 r13
  00014	41 56		 push	 r14
  00016	41 57		 push	 r15
  00018	48 83 ec 60	 sub	 rsp, 96			; 00000060H
  0001c	48 8b 05 00 00
	00 00		 mov	 rax, QWORD PTR __security_cookie
  00023	48 33 c4	 xor	 rax, rsp
  00026	48 89 44 24 50	 mov	 QWORD PTR __$ArrayPad$[rsp], rax
  0002b	4c 8b e1	 mov	 r12, rcx
  0002e	48 89 4c 24 28	 mov	 QWORD PTR imports$GSCopy$[rsp], rcx

; 22   : 		int import_count = 0;

  00033	45 33 f6	 xor	 r14d, r14d

; 23   : 		for (const auto& current_import : imports)

  00036	48 8b 39	 mov	 rdi, QWORD PTR [rcx]
  00039	4c 8b 69 08	 mov	 r13, QWORD PTR [rcx+8]
$LN167@resolve_im:
; File C:\Program Files (x86)\Microsoft Visual Studio\2019\Community\VC\Tools\MSVC\14.29.30133\include\xstring

; 2272 :         const value_type* _Result = _Bx._Buf;

  0003d	49 3b fd	 cmp	 rdi, r13
  00040	0f 84 5e 02 00
	00		 je	 $LN3@resolve_im
  00046	4c 8b ff	 mov	 r15, rdi

; 2273 :         if (_Large_string_engaged()) {

  00049	48 83 7f 18 10	 cmp	 QWORD PTR [rdi+24], 16
  0004e	72 03		 jb	 SHORT $LN162@resolve_im

; 2274 :             _Result = _Unfancy(_Bx._Ptr);

  00050	4c 8b 3f	 mov	 r15, QWORD PTR [rdi]
$LN162@resolve_im:
; File C:\Users\vin\Downloads\ApexIsAssWithEAC-main\ApexIsAssWithEAC-main\sinmapper\util.hpp

; 265  : 		void* buffer = nullptr;

  00053	33 db		 xor	 ebx, ebx

; 266  : 		DWORD buffer_size = NULL;

  00055	89 5c 24 20	 mov	 DWORD PTR buffer_size$1[rsp], ebx

; 267  : 
; 268  : 		NTSTATUS status = NtQuerySystemInformation(

  00059	4c 8d 4c 24 20	 lea	 r9, QWORD PTR buffer_size$1[rsp]
  0005e	45 33 c0	 xor	 r8d, r8d
  00061	33 d2		 xor	 edx, edx
  00063	8d 4b 0b	 lea	 ecx, QWORD PTR [rbx+11]
  00066	ff 15 00 00 00
	00		 call	 QWORD PTR __imp_NtQuerySystemInformation

; 269  : 			static_cast<SYSTEM_INFORMATION_CLASS>(SystemModuleInformation),
; 270  : 			buffer,
; 271  : 			buffer_size, 
; 272  : 			&buffer_size
; 273  : 		);
; 274  : 
; 275  : 		while (status == STATUS_INFO_LENGTH_MISMATCH)

  0006c	3d 04 00 00 c0	 cmp	 eax, -1073741820	; ffffffffc0000004H
  00071	75 49		 jne	 SHORT $LN21@resolve_im
$LL20@resolve_im:

; 276  : 		{
; 277  : 			VirtualFree(buffer, NULL, MEM_RELEASE);

  00073	33 d2		 xor	 edx, edx
  00075	41 b8 00 80 00
	00		 mov	 r8d, 32768		; 00008000H
  0007b	48 8b cb	 mov	 rcx, rbx
  0007e	ff 15 00 00 00
	00		 call	 QWORD PTR __imp_VirtualFree

; 278  : 			buffer = VirtualAlloc(nullptr, buffer_size, MEM_COMMIT | MEM_RESERVE, PAGE_READWRITE);

  00084	8b 54 24 20	 mov	 edx, DWORD PTR buffer_size$1[rsp]
  00088	33 c9		 xor	 ecx, ecx
  0008a	44 8d 49 04	 lea	 r9d, QWORD PTR [rcx+4]
  0008e	41 b8 00 30 00
	00		 mov	 r8d, 12288		; 00003000H
  00094	ff 15 00 00 00
	00		 call	 QWORD PTR __imp_VirtualAlloc
  0009a	48 8b d8	 mov	 rbx, rax

; 279  : 			status = NtQuerySystemInformation(static_cast<SYSTEM_INFORMATION_CLASS>(SystemModuleInformation), buffer, buffer_size, &buffer_size);

  0009d	4c 8d 4c 24 20	 lea	 r9, QWORD PTR buffer_size$1[rsp]
  000a2	44 8b 44 24 20	 mov	 r8d, DWORD PTR buffer_size$1[rsp]
  000a7	48 8b d0	 mov	 rdx, rax
  000aa	b9 0b 00 00 00	 mov	 ecx, 11
  000af	ff 15 00 00 00
	00		 call	 QWORD PTR __imp_NtQuerySystemInformation

; 269  : 			static_cast<SYSTEM_INFORMATION_CLASS>(SystemModuleInformation),
; 270  : 			buffer,
; 271  : 			buffer_size, 
; 272  : 			&buffer_size
; 273  : 		);
; 274  : 
; 275  : 		while (status == STATUS_INFO_LENGTH_MISMATCH)

  000b5	3d 04 00 00 c0	 cmp	 eax, -1073741820	; ffffffffc0000004H
  000ba	74 b7		 je	 SHORT $LL20@resolve_im
$LN21@resolve_im:

; 280  : 		}
; 281  : 
; 282  : 		if (!NT_SUCCESS(status))

  000bc	85 c0		 test	 eax, eax
  000be	0f 88 a9 01 00
	00		 js	 $LN158@resolve_im

; 289  : 		for (auto idx = 0u; idx < modules->NumberOfModules; ++idx)

  000c4	45 33 c0	 xor	 r8d, r8d
  000c7	41 8b f0	 mov	 esi, r8d
  000ca	44 39 03	 cmp	 DWORD PTR [rbx], r8d
  000cd	0f 86 9a 01 00
	00		 jbe	 $LN158@resolve_im
  000d3	0f 1f 40 00 66
	0f 1f 84 00 00
	00 00 00	 npad	 13
$LL24@resolve_im:

; 290  : 		{
; 291  : 			const std::string current_module_name = std::string(reinterpret_cast<char*>(modules->Modules[idx].FullPathName) + modules->Modules[idx].OffsetToFileName);

  000e0	8b ee		 mov	 ebp, esi
  000e2	48 69 c5 28 01
	00 00		 imul	 rax, rbp, 296		; 00000128H
  000e9	0f b7 4c 18 2e	 movzx	 ecx, WORD PTR [rax+rbx+46]
  000ee	48 03 c8	 add	 rcx, rax
  000f1	48 8d 53 30	 lea	 rdx, QWORD PTR [rbx+48]
  000f5	48 03 d1	 add	 rdx, rcx
; File C:\Program Files (x86)\Microsoft Visual Studio\2019\Community\VC\Tools\MSVC\14.29.30133\include\xstring

; 2313 :         _CONSTEXPR20_CONTAINER _Bxty() noexcept : _Ptr() {} // user-provided, for fancy pointers

  000f8	4c 89 44 24 30	 mov	 QWORD PTR current_module_name$2[rsp], r8

; 4562 :         _My_data._Mysize = 0;

  000fd	4c 89 44 24 40	 mov	 QWORD PTR current_module_name$2[rsp+16], r8

; 4563 : 
; 4564 : #ifdef __cpp_lib_constexpr_string
; 4565 :         if (_STD is_constant_evaluated()) {
; 4566 :             _My_data._Myres        = _BUF_SIZE; // SSO disabled in constexpr context
; 4567 :             auto& _Al              = _Getal();
; 4568 :             const pointer _New_ptr = _Al.allocate(_BUF_SIZE + 1); // throws
; 4569 :             _My_data._Bx._Ptr      = _New_ptr;
; 4570 : 
; 4571 :             _Elem* const _Raw_new = _Unfancy(_New_ptr);
; 4572 :             _Traits::assign(_Raw_new, _BUF_SIZE + 1, _Elem());
; 4573 :         } else
; 4574 : #endif // __cpp_lib_constexpr_string
; 4575 :         {
; 4576 :             _My_data._Myres = _BUF_SIZE - 1;

  00102	48 c7 44 24 48
	0f 00 00 00	 mov	 QWORD PTR current_module_name$2[rsp+24], 15

; 401  :             return __builtin_strlen(_First);

  0010b	49 c7 c0 ff ff
	ff ff		 mov	 r8, -1
$LL164@resolve_im:
  00112	49 ff c0	 inc	 r8
  00115	42 80 3c 02 00	 cmp	 BYTE PTR [rdx+r8], 0
  0011a	75 f6		 jne	 SHORT $LL164@resolve_im

; 3230 :         return assign(_Ptr, _Convert_size<size_type>(_Traits::length(_Ptr)));

  0011c	48 8d 4c 24 30	 lea	 rcx, QWORD PTR current_module_name$2[rsp]
  00121	e8 00 00 00 00	 call	 ?assign@?$basic_string@DU?$char_traits@D@std@@V?$allocator@D@2@@std@@QEAAAEAV12@QEBD_K@Z ; std::basic_string<char,std::char_traits<char>,std::allocator<char> >::assign

; 2272 :         const value_type* _Result = _Bx._Buf;

  00126	48 8d 4c 24 30	 lea	 rcx, QWORD PTR current_module_name$2[rsp]

; 2273 :         if (_Large_string_engaged()) {

  0012b	48 83 7c 24 48
	10		 cmp	 QWORD PTR current_module_name$2[rsp+24], 16
  00131	48 0f 43 4c 24
	30		 cmovae	 rcx, QWORD PTR current_module_name$2[rsp]
; File C:\Users\vin\Downloads\ApexIsAssWithEAC-main\ApexIsAssWithEAC-main\sinmapper\util.hpp

; 292  : 			if (!_stricmp(current_module_name.c_str(), module_name))

  00137	49 8b d7	 mov	 rdx, r15
  0013a	ff 15 00 00 00
	00		 call	 QWORD PTR __imp__stricmp
  00140	85 c0		 test	 eax, eax
  00142	74 4f		 je	 SHORT $LN140@resolve_im
; File C:\Program Files (x86)\Microsoft Visual Studio\2019\Community\VC\Tools\MSVC\14.29.30133\include\xstring

; 4584 :         if (_Mypair._Myval2._Large_string_engaged()) {

  00144	48 8b 54 24 48	 mov	 rdx, QWORD PTR current_module_name$2[rsp+24]
  00149	48 83 fa 10	 cmp	 rdx, 16
  0014d	72 32		 jb	 SHORT $LN92@resolve_im

; 4585 :             const pointer _Ptr = _Mypair._Myval2._Bx._Ptr;
; 4586 :             auto& _Al          = _Getal();
; 4587 :             _Destroy_in_place(_Mypair._Myval2._Bx._Ptr);
; 4588 :             _Al.deallocate(_Ptr, _Mypair._Myval2._Myres + 1);

  0014f	48 ff c2	 inc	 rdx
; File C:\Program Files (x86)\Microsoft Visual Studio\2019\Community\VC\Tools\MSVC\14.29.30133\include\xmemory

; 797  :         _Deallocate<_New_alignof<_Ty>>(_Ptr, sizeof(_Ty) * _Count);

  00152	48 8b 4c 24 30	 mov	 rcx, QWORD PTR current_module_name$2[rsp]
  00157	48 8b c1	 mov	 rax, rcx

; 251  :         if (_Bytes >= _Big_allocation_threshold) { // boost the alignment of big allocations to help autovectorization

  0015a	48 81 fa 00 10
	00 00		 cmp	 rdx, 4096		; 00001000H
  00161	72 19		 jb	 SHORT $LN102@resolve_im

; 147  :     _Bytes += _Non_user_size;

  00163	48 83 c2 27	 add	 rdx, 39			; 00000027H

; 148  : 
; 149  :     const uintptr_t* const _Ptr_user = reinterpret_cast<uintptr_t*>(_Ptr);
; 150  :     const uintptr_t _Ptr_container   = _Ptr_user[-1];

  00167	48 8b 49 f8	 mov	 rcx, QWORD PTR [rcx-8]
  0016b	48 2b c1	 sub	 rax, rcx

; 164  :     _STL_VERIFY(_Back_shift >= _Min_back_shift && _Back_shift <= _Non_user_size, "invalid argument");

  0016e	48 83 c0 f8	 add	 rax, -8
  00172	48 83 f8 1f	 cmp	 rax, 31
  00176	0f 87 c4 00 00
	00		 ja	 $LN99@resolve_im
$LN102@resolve_im:

; 255  :         ::operator delete(_Ptr, _Bytes);

  0017c	e8 00 00 00 00	 call	 ??3@YAXPEAX_K@Z		; operator delete
$LN92@resolve_im:
; File C:\Users\vin\Downloads\ApexIsAssWithEAC-main\ApexIsAssWithEAC-main\sinmapper\util.hpp

; 289  : 		for (auto idx = 0u; idx < modules->NumberOfModules; ++idx)

  00181	ff c6		 inc	 esi
  00183	3b 33		 cmp	 esi, DWORD PTR [rbx]
  00185	0f 83 e2 00 00
	00		 jae	 $LN158@resolve_im
  0018b	45 33 c0	 xor	 r8d, r8d
  0018e	e9 4d ff ff ff	 jmp	 $LL24@resolve_im
$LN140@resolve_im:

; 293  : 			{
; 294  : 				const uint64_t result = reinterpret_cast<uint64_t>(modules->Modules[idx].ImageBase);

  00193	48 69 c5 28 01
	00 00		 imul	 rax, rbp, 296		; 00000128H
  0019a	48 8b 74 18 18	 mov	 rsi, QWORD PTR [rax+rbx+24]

; 295  : 				VirtualFree(buffer, NULL, MEM_RELEASE);

  0019f	33 d2		 xor	 edx, edx
  001a1	41 b8 00 80 00
	00		 mov	 r8d, 32768		; 00008000H
  001a7	48 8b cb	 mov	 rcx, rbx
  001aa	ff 15 00 00 00
	00		 call	 QWORD PTR __imp_VirtualFree
; File C:\Program Files (x86)\Microsoft Visual Studio\2019\Community\VC\Tools\MSVC\14.29.30133\include\xstring

; 4584 :         if (_Mypair._Myval2._Large_string_engaged()) {

  001b0	48 8b 54 24 48	 mov	 rdx, QWORD PTR current_module_name$2[rsp+24]
  001b5	48 83 fa 10	 cmp	 rdx, 16
  001b9	72 2e		 jb	 SHORT $LN64@resolve_im

; 4585 :             const pointer _Ptr = _Mypair._Myval2._Bx._Ptr;
; 4586 :             auto& _Al          = _Getal();
; 4587 :             _Destroy_in_place(_Mypair._Myval2._Bx._Ptr);
; 4588 :             _Al.deallocate(_Ptr, _Mypair._Myval2._Myres + 1);

  001bb	48 ff c2	 inc	 rdx
; File C:\Program Files (x86)\Microsoft Visual Studio\2019\Community\VC\Tools\MSVC\14.29.30133\include\xmemory

; 797  :         _Deallocate<_New_alignof<_Ty>>(_Ptr, sizeof(_Ty) * _Count);

  001be	48 8b 4c 24 30	 mov	 rcx, QWORD PTR current_module_name$2[rsp]
  001c3	48 8b c1	 mov	 rax, rcx

; 251  :         if (_Bytes >= _Big_allocation_threshold) { // boost the alignment of big allocations to help autovectorization

  001c6	48 81 fa 00 10
	00 00		 cmp	 rdx, 4096		; 00001000H
  001cd	72 15		 jb	 SHORT $LN74@resolve_im

; 147  :     _Bytes += _Non_user_size;

  001cf	48 83 c2 27	 add	 rdx, 39			; 00000027H

; 148  : 
; 149  :     const uintptr_t* const _Ptr_user = reinterpret_cast<uintptr_t*>(_Ptr);
; 150  :     const uintptr_t _Ptr_container   = _Ptr_user[-1];

  001d3	48 8b 49 f8	 mov	 rcx, QWORD PTR [rcx-8]
  001d7	48 2b c1	 sub	 rax, rcx

; 164  :     _STL_VERIFY(_Back_shift >= _Min_back_shift && _Back_shift <= _Non_user_size, "invalid argument");

  001da	48 83 c0 f8	 add	 rax, -8
  001de	48 83 f8 1f	 cmp	 rax, 31
  001e2	77 5c		 ja	 SHORT $LN99@resolve_im
$LN74@resolve_im:

; 255  :         ::operator delete(_Ptr, _Bytes);

  001e4	e8 00 00 00 00	 call	 ??3@YAXPEAX_K@Z		; operator delete
$LN64@resolve_im:
; File C:\Users\vin\Downloads\ApexIsAssWithEAC-main\ApexIsAssWithEAC-main\sinmapper\drv_image.cpp

; 25   : 			if (!util::get_module_base(current_import.module_name.c_str()))

  001e9	48 85 f6	 test	 rsi, rsi
  001ec	0f 84 8c 00 00
	00		 je	 $LN142@resolve_im

; 29   : 			}
; 30   : 
; 31   : 			for (auto& current_function_data : current_import.function_datas)

  001f2	48 8b 5f 20	 mov	 rbx, QWORD PTR [rdi+32]
  001f6	48 8b 77 28	 mov	 rsi, QWORD PTR [rdi+40]
  001fa	48 3b de	 cmp	 rbx, rsi
  001fd	74 38		 je	 SHORT $LN2@resolve_im
  001ff	90		 npad	 1
$LL7@resolve_im:
; File C:\Program Files (x86)\Microsoft Visual Studio\2019\Community\VC\Tools\MSVC\14.29.30133\include\xstring

; 2272 :         const value_type* _Result = _Bx._Buf;

  00200	48 8b d3	 mov	 rdx, rbx

; 2273 :         if (_Large_string_engaged()) {

  00203	48 83 7b 18 10	 cmp	 QWORD PTR [rbx+24], 16
  00208	72 03		 jb	 SHORT $LN163@resolve_im

; 2274 :             _Result = _Unfancy(_Bx._Ptr);

  0020a	48 8b 13	 mov	 rdx, QWORD PTR [rbx]
$LN163@resolve_im:

; 2272 :         const value_type* _Result = _Bx._Buf;

  0020d	48 8b cf	 mov	 rcx, rdi

; 2273 :         if (_Large_string_engaged()) {

  00210	48 83 7f 18 10	 cmp	 QWORD PTR [rdi+24], 16
  00215	72 03		 jb	 SHORT $LN161@resolve_im

; 2274 :             _Result = _Unfancy(_Bx._Ptr);

  00217	48 8b 0f	 mov	 rcx, QWORD PTR [rdi]
$LN161@resolve_im:
; File C:\Users\vin\Downloads\ApexIsAssWithEAC-main\ApexIsAssWithEAC-main\sinmapper\drv_image.cpp

; 33   : 				const uint64_t function_address = (uint64_t)util::get_kernel_export(current_import.module_name.c_str(), current_function_data.name.c_str());

  0021a	e8 00 00 00 00	 call	 ?get_kernel_export@util@@YAPEAXPEBD0_N@Z ; util::get_kernel_export

; 34   : 
; 35   : 				if (!function_address)

  0021f	48 85 c0	 test	 rax, rax
  00222	74 23		 je	 SHORT $LN141@resolve_im

; 39   : 				}
; 40   : 
; 41   : 				import_count++;

  00224	41 ff c6	 inc	 r14d

; 42   : 				*current_function_data.address = function_address;

  00227	48 8b 4b 20	 mov	 rcx, QWORD PTR [rbx+32]
  0022b	48 89 01	 mov	 QWORD PTR [rcx], rax

; 29   : 			}
; 30   : 
; 31   : 			for (auto& current_function_data : current_import.function_datas)

  0022e	48 83 c3 28	 add	 rbx, 40			; 00000028H
  00232	48 3b de	 cmp	 rbx, rsi
  00235	75 c9		 jne	 SHORT $LL7@resolve_im
$LN2@resolve_im:

; 23   : 		for (const auto& current_import : imports)

  00237	48 83 c7 38	 add	 rdi, 56			; 00000038H
  0023b	e9 fd fd ff ff	 jmp	 $LN167@resolve_im
$LN99@resolve_im:
; File C:\Program Files (x86)\Microsoft Visual Studio\2019\Community\VC\Tools\MSVC\14.29.30133\include\xmemory

; 164  :     _STL_VERIFY(_Back_shift >= _Min_back_shift && _Back_shift <= _Non_user_size, "invalid argument");

  00240	ff 15 00 00 00
	00		 call	 QWORD PTR __imp__invalid_parameter_noinfo_noreturn
  00246	cc		 int	 3
$LN141@resolve_im:
; File C:\Program Files (x86)\Microsoft Visual Studio\2019\Community\VC\Tools\MSVC\14.29.30133\include\xstring

; 2273 :         if (_Large_string_engaged()) {

  00247	48 83 7b 18 10	 cmp	 QWORD PTR [rbx+24], 16
  0024c	72 03		 jb	 SHORT $LN132@resolve_im

; 2274 :             _Result = _Unfancy(_Bx._Ptr);

  0024e	48 8b 1b	 mov	 rbx, QWORD PTR [rbx]
$LN132@resolve_im:
; File C:\Users\vin\Downloads\ApexIsAssWithEAC-main\ApexIsAssWithEAC-main\sinmapper\drv_image.cpp

; 37   : 					std::printf("[-] failed to resolve import [%s]\n", current_function_data.name.c_str());

  00251	48 8b d3	 mov	 rdx, rbx
  00254	48 8d 0d 00 00
	00 00		 lea	 rcx, OFFSET FLAT:??_C@_0CD@IMFAMML@?$FL?9?$FN?5failed?5to?5resolve?5import?5?$FL?$CF@
  0025b	e8 00 00 00 00	 call	 printf
  00260	90		 npad	 1

; 38   : 					return false;

  00261	49 8b cc	 mov	 rcx, r12
  00264	e8 00 00 00 00	 call	 ??1?$vector@UImportInfo@portable_executable@@V?$allocator@UImportInfo@portable_executable@@@std@@@std@@QEAA@XZ ; std::vector<portable_executable::ImportInfo,std::allocator<portable_executable::ImportInfo> >::~vector<portable_executable::ImportInfo,std::allocator<portable_executable::ImportInfo> >
  00269	32 c0		 xor	 al, al
  0026b	eb 51		 jmp	 SHORT $LN1@resolve_im
$LN158@resolve_im:
; File C:\Program Files (x86)\Microsoft Visual Studio\2019\Community\VC\Tools\MSVC\14.29.30133\include\xstring

; 2273 :         if (_Large_string_engaged()) {

  0026d	41 b8 00 80 00
	00		 mov	 r8d, 32768		; 00008000H
  00273	33 d2		 xor	 edx, edx
  00275	48 8b cb	 mov	 rcx, rbx
  00278	ff 15 00 00 00
	00		 call	 QWORD PTR __imp_VirtualFree
$LN142@resolve_im:
  0027e	48 83 7f 18 10	 cmp	 QWORD PTR [rdi+24], 16
  00283	72 03		 jb	 SHORT $LN111@resolve_im

; 2274 :             _Result = _Unfancy(_Bx._Ptr);

  00285	48 8b 3f	 mov	 rdi, QWORD PTR [rdi]
$LN111@resolve_im:
; File C:\Users\vin\Downloads\ApexIsAssWithEAC-main\ApexIsAssWithEAC-main\sinmapper\drv_image.cpp

; 27   : 				std::printf("imported module [%s] not found\n", current_import.module_name.c_str());

  00288	48 8b d7	 mov	 rdx, rdi
  0028b	48 8d 0d 00 00
	00 00		 lea	 rcx, OFFSET FLAT:??_C@_0CA@IOOJHFBM@imported?5module?5?$FL?$CFs?$FN?5not?5found?6@
  00292	e8 00 00 00 00	 call	 printf
  00297	90		 npad	 1

; 28   : 				return false;

  00298	49 8b cc	 mov	 rcx, r12
  0029b	e8 00 00 00 00	 call	 ??1?$vector@UImportInfo@portable_executable@@V?$allocator@UImportInfo@portable_executable@@@std@@@std@@QEAA@XZ ; std::vector<portable_executable::ImportInfo,std::allocator<portable_executable::ImportInfo> >::~vector<portable_executable::ImportInfo,std::allocator<portable_executable::ImportInfo> >
  002a0	32 c0		 xor	 al, al
  002a2	eb 1a		 jmp	 SHORT $LN1@resolve_im
$LN3@resolve_im:

; 43   : 			}
; 44   : 		}
; 45   : 
; 46   : 		std::printf("[+] resolved [%i] imports\n", import_count);

  002a4	41 8b d6	 mov	 edx, r14d
  002a7	48 8d 0d 00 00
	00 00		 lea	 rcx, OFFSET FLAT:??_C@_0BL@IJFHCNGM@?$FL?$CL?$FN?5resolved?5?$FL?$CFi?$FN?5imports?6@
  002ae	e8 00 00 00 00	 call	 printf
  002b3	90		 npad	 1

; 47   : 
; 48   : 		return true;

  002b4	49 8b cc	 mov	 rcx, r12
  002b7	e8 00 00 00 00	 call	 ??1?$vector@UImportInfo@portable_executable@@V?$allocator@UImportInfo@portable_executable@@@std@@@std@@QEAA@XZ ; std::vector<portable_executable::ImportInfo,std::allocator<portable_executable::ImportInfo> >::~vector<portable_executable::ImportInfo,std::allocator<portable_executable::ImportInfo> >
  002bc	b0 01		 mov	 al, 1
$LN1@resolve_im:

; 49   : 	}

  002be	48 8b 4c 24 50	 mov	 rcx, QWORD PTR __$ArrayPad$[rsp]
  002c3	48 33 cc	 xor	 rcx, rsp
  002c6	e8 00 00 00 00	 call	 __security_check_cookie
  002cb	4c 8d 5c 24 60	 lea	 r11, QWORD PTR [rsp+96]
  002d0	49 8b 5b 38	 mov	 rbx, QWORD PTR [r11+56]
  002d4	49 8b 6b 40	 mov	 rbp, QWORD PTR [r11+64]
  002d8	49 8b 73 48	 mov	 rsi, QWORD PTR [r11+72]
  002dc	49 8b e3	 mov	 rsp, r11
  002df	41 5f		 pop	 r15
  002e1	41 5e		 pop	 r14
  002e3	41 5d		 pop	 r13
  002e5	41 5c		 pop	 r12
  002e7	5f		 pop	 rdi
  002e8	c3		 ret	 0
$LN165@resolve_im:
?resolve_imports@portable_executable@@YA_NV?$vector@UImportInfo@portable_executable@@V?$allocator@UImportInfo@portable_executable@@@std@@@std@@@Z ENDP ; portable_executable::resolve_imports
_TEXT	ENDS
text$x	SEGMENT
buffer_size$1 = 32
imports$GSCopy$ = 40
current_module_name$2 = 48
__$ArrayPad$ = 80
imports$ = 144
?dtor$0@?0??resolve_imports@portable_executable@@YA_NV?$vector@UImportInfo@portable_executable@@V?$allocator@UImportInfo@portable_executable@@@std@@@std@@@Z@4HA PROC ; `portable_executable::resolve_imports'::`1'::dtor$0
  00000	48 8b 8a 28 00
	00 00		 mov	 rcx, QWORD PTR imports$GSCopy$[rdx]
  00007	e9 00 00 00 00	 jmp	 ??1?$vector@UImportInfo@portable_executable@@V?$allocator@UImportInfo@portable_executable@@@std@@@std@@QEAA@XZ ; std::vector<portable_executable::ImportInfo,std::allocator<portable_executable::ImportInfo> >::~vector<portable_executable::ImportInfo,std::allocator<portable_executable::ImportInfo> >
?dtor$0@?0??resolve_imports@portable_executable@@YA_NV?$vector@UImportInfo@portable_executable@@V?$allocator@UImportInfo@portable_executable@@@std@@@std@@@Z@4HA ENDP ; `portable_executable::resolve_imports'::`1'::dtor$0
text$x	ENDS
; Function compile flags: /Ogtpy
text$x	SEGMENT
buffer_size$1 = 32
imports$GSCopy$ = 40
current_module_name$2 = 48
__$ArrayPad$ = 80
imports$ = 144
?dtor$0@?0??resolve_imports@portable_executable@@YA_NV?$vector@UImportInfo@portable_executable@@V?$allocator@UImportInfo@portable_executable@@@std@@@std@@@Z@4HA PROC ; `portable_executable::resolve_imports'::`1'::dtor$0
  00000	48 8b 8a 28 00
	00 00		 mov	 rcx, QWORD PTR imports$GSCopy$[rdx]
  00007	e9 00 00 00 00	 jmp	 ??1?$vector@UImportInfo@portable_executable@@V?$allocator@UImportInfo@portable_executable@@@std@@@std@@QEAA@XZ ; std::vector<portable_executable::ImportInfo,std::allocator<portable_executable::ImportInfo> >::~vector<portable_executable::ImportInfo,std::allocator<portable_executable::ImportInfo> >
?dtor$0@?0??resolve_imports@portable_executable@@YA_NV?$vector@UImportInfo@portable_executable@@V?$allocator@UImportInfo@portable_executable@@@std@@@std@@@Z@4HA ENDP ; `portable_executable::resolve_imports'::`1'::dtor$0
text$x	ENDS
; Function compile flags: /Ogtpy
; File C:\Users\vin\Downloads\ApexIsAssWithEAC-main\ApexIsAssWithEAC-main\sinmapper\drv_image.cpp
_TEXT	SEGMENT
image_base$ = 8
?get_nt_headers@portable_executable@@YAPEAU_IMAGE_NT_HEADERS64@@PEAX@Z PROC ; portable_executable::get_nt_headers

; 53   : 		const auto dos_header = reinterpret_cast<PIMAGE_DOS_HEADER>(image_base);
; 54   : 
; 55   : 		if (dos_header->e_magic != IMAGE_DOS_SIGNATURE)

  00000	b8 4d 5a 00 00	 mov	 eax, 23117		; 00005a4dH
  00005	66 39 01	 cmp	 WORD PTR [rcx], ax
  00008	75 0f		 jne	 SHORT $LN5@get_nt_hea

; 56   : 			return nullptr;
; 57   : 
; 58   : 		const auto nt_headers = reinterpret_cast<PIMAGE_NT_HEADERS64>(reinterpret_cast<uint64_t>(image_base) + dos_header->e_lfanew);

  0000a	48 63 41 3c	 movsxd	 rax, DWORD PTR [rcx+60]
  0000e	48 03 c1	 add	 rax, rcx

; 59   : 
; 60   : 		if (nt_headers->Signature != IMAGE_NT_SIGNATURE)

  00011	81 38 50 45 00
	00		 cmp	 DWORD PTR [rax], 17744	; 00004550H
  00017	74 02		 je	 SHORT $LN1@get_nt_hea
$LN5@get_nt_hea:

; 61   : 			return nullptr;

  00019	33 c0		 xor	 eax, eax
$LN1@get_nt_hea:

; 62   : 
; 63   : 		return nt_headers;
; 64   : 	}

  0001b	c3		 ret	 0
?get_nt_headers@portable_executable@@YAPEAU_IMAGE_NT_HEADERS64@@PEAX@Z ENDP ; portable_executable::get_nt_headers
_TEXT	ENDS
; Function compile flags: /Ogtpy
; File C:\Users\vin\Downloads\ApexIsAssWithEAC-main\ApexIsAssWithEAC-main\sinmapper\drv_image.cpp
; File C:\Program Files (x86)\Microsoft Visual Studio\2019\Community\VC\Tools\MSVC\14.29.30133\include\vector
; File C:\Users\vin\Downloads\ApexIsAssWithEAC-main\ApexIsAssWithEAC-main\sinmapper\drv_image.cpp
; File C:\Program Files (x86)\Microsoft Visual Studio\2019\Community\VC\Tools\MSVC\14.29.30133\include\vector
; File C:\Program Files (x86)\Microsoft Visual Studio\2019\Community\VC\Tools\MSVC\14.29.30133\include\xmemory
; File C:\Program Files (x86)\Microsoft Visual Studio\2019\Community\VC\Tools\MSVC\14.29.30133\include\vector
; File C:\Users\vin\Downloads\ApexIsAssWithEAC-main\ApexIsAssWithEAC-main\sinmapper\drv_image.cpp
; File C:\Program Files (x86)\Microsoft Visual Studio\2019\Community\VC\Tools\MSVC\14.29.30133\include\vector
; File C:\Users\vin\Downloads\ApexIsAssWithEAC-main\ApexIsAssWithEAC-main\sinmapper\drv_image.cpp
; File C:\Program Files (x86)\Microsoft Visual Studio\2019\Community\VC\Tools\MSVC\14.29.30133\include\vector
; File C:\Users\vin\Downloads\ApexIsAssWithEAC-main\ApexIsAssWithEAC-main\sinmapper\drv_image.cpp
_TEXT	SEGMENT
relocs$ = 32
reloc_info$1 = 56
__$ReturnUdt$ = 96
image_base$ = 104
?get_relocations@portable_executable@@YA?AV?$vector@URelocInfo@portable_executable@@V?$allocator@URelocInfo@portable_executable@@@std@@@std@@PEAX@Z PROC ; portable_executable::get_relocations

; 67   : 	{

$LN80:
  00000	48 89 5c 24 08	 mov	 QWORD PTR [rsp+8], rbx
  00005	48 89 74 24 10	 mov	 QWORD PTR [rsp+16], rsi
  0000a	57		 push	 rdi
  0000b	48 83 ec 50	 sub	 rsp, 80			; 00000050H
  0000f	48 8b f2	 mov	 rsi, rdx
  00012	48 8b f9	 mov	 rdi, rcx

; 55   : 		if (dos_header->e_magic != IMAGE_DOS_SIGNATURE)

  00015	b8 4d 5a 00 00	 mov	 eax, 23117		; 00005a4dH
  0001a	66 39 02	 cmp	 WORD PTR [rdx], ax
  0001d	0f 85 ca 00 00
	00		 jne	 $LN75@get_reloca

; 56   : 			return nullptr;
; 57   : 
; 58   : 		const auto nt_headers = reinterpret_cast<PIMAGE_NT_HEADERS64>(reinterpret_cast<uint64_t>(image_base) + dos_header->e_lfanew);

  00023	48 63 42 3c	 movsxd	 rax, DWORD PTR [rdx+60]

; 59   : 
; 60   : 		if (nt_headers->Signature != IMAGE_NT_SIGNATURE)

  00027	81 3c 10 50 45
	00 00		 cmp	 DWORD PTR [rax+rdx], 17744 ; 00004550H
  0002e	0f 85 b9 00 00
	00		 jne	 $LN75@get_reloca
  00034	0f 57 c0	 xorps	 xmm0, xmm0
; File C:\Program Files (x86)\Microsoft Visual Studio\2019\Community\VC\Tools\MSVC\14.29.30133\include\vector

; 390  :     _CONSTEXPR20_CONTAINER _Vector_val() noexcept : _Myfirst(), _Mylast(), _Myend() {}

  00037	f3 0f 7f 44 24
	20		 movdqu	 XMMWORD PTR relocs$[rsp], xmm0
  0003d	33 d2		 xor	 edx, edx
  0003f	48 89 54 24 30	 mov	 QWORD PTR relocs$[rsp+16], rdx
; File C:\Users\vin\Downloads\ApexIsAssWithEAC-main\ApexIsAssWithEAC-main\sinmapper\drv_image.cpp

; 75   : 		auto current_base_relocation = reinterpret_cast<PIMAGE_BASE_RELOCATION>(reinterpret_cast<uint64_t>(image_base) + nt_headers->OptionalHeader.DataDirectory[IMAGE_DIRECTORY_ENTRY_BASERELOC].VirtualAddress);

  00044	8b 9c 30 b0 00
	00 00		 mov	 ebx, DWORD PTR [rax+rsi+176]
  0004b	48 03 de	 add	 rbx, rsi

; 76   : 
; 77   : 		while (current_base_relocation->VirtualAddress)

  0004e	8b 03		 mov	 eax, DWORD PTR [rbx]
  00050	48 8b 4c 24 28	 mov	 rcx, QWORD PTR relocs$[rsp+8]
  00055	85 c0		 test	 eax, eax
  00057	74 71		 je	 SHORT $LN3@get_reloca
  00059	0f 1f 80 00 00
	00 00		 npad	 7
$LL2@get_reloca:

; 78   : 		{
; 79   : 			RelocInfo reloc_info;
; 80   : 
; 81   : 			reloc_info.address = reinterpret_cast<uint64_t>(image_base) + current_base_relocation->VirtualAddress;

  00060	48 03 c6	 add	 rax, rsi
  00063	48 89 44 24 38	 mov	 QWORD PTR reloc_info$1[rsp], rax

; 82   : 			reloc_info.item = reinterpret_cast<uint16_t*>(reinterpret_cast<uint64_t>(current_base_relocation) + sizeof(IMAGE_BASE_RELOCATION));

  00068	48 8d 43 08	 lea	 rax, QWORD PTR [rbx+8]
  0006c	48 89 44 24 40	 mov	 QWORD PTR reloc_info$1[rsp+8], rax

; 83   : 			reloc_info.count = (current_base_relocation->SizeOfBlock - sizeof(IMAGE_BASE_RELOCATION)) / sizeof(uint16_t);

  00071	8b 43 04	 mov	 eax, DWORD PTR [rbx+4]
  00074	48 83 e8 08	 sub	 rax, 8
  00078	48 d1 e8	 shr	 rax, 1
  0007b	89 44 24 48	 mov	 DWORD PTR reloc_info$1[rsp+16], eax
; File C:\Program Files (x86)\Microsoft Visual Studio\2019\Community\VC\Tools\MSVC\14.29.30133\include\vector

; 730  :         if (_Mylast != _My_data._Myend) {

  0007f	48 3b ca	 cmp	 rcx, rdx
  00082	74 1e		 je	 SHORT $LN28@get_reloca
; File C:\Program Files (x86)\Microsoft Visual Studio\2019\Community\VC\Tools\MSVC\14.29.30133\include\xmemory

; 674  :     static _CONSTEXPR20_DYNALLOC void construct(_Alloc&, _Objty* const _Ptr, _Types&&... _Args) {

  00084	0f 10 44 24 38	 movups	 xmm0, XMMWORD PTR reloc_info$1[rsp]
  00089	0f 11 01	 movups	 XMMWORD PTR [rcx], xmm0
  0008c	f2 0f 10 4c 24
	48		 movsd	 xmm1, QWORD PTR reloc_info$1[rsp+16]
  00092	f2 0f 11 49 10	 movsd	 QWORD PTR [rcx+16], xmm1
; File C:\Program Files (x86)\Microsoft Visual Studio\2019\Community\VC\Tools\MSVC\14.29.30133\include\vector

; 716  :         ++_Mylast;

  00097	48 83 c1 18	 add	 rcx, 24
  0009b	48 89 4c 24 28	 mov	 QWORD PTR relocs$[rsp+8], rcx

; 731  :             return _Emplace_back_with_unused_capacity(_STD forward<_Valty>(_Val)...);

  000a0	eb 1c		 jmp	 SHORT $LN27@get_reloca
$LN28@get_reloca:

; 732  :         }
; 733  : 
; 734  :         _Ty& _Result = *_Emplace_reallocate(_Mylast, _STD forward<_Valty>(_Val)...);

  000a2	4c 8d 44 24 38	 lea	 r8, QWORD PTR reloc_info$1[rsp]
  000a7	48 8b d1	 mov	 rdx, rcx
  000aa	48 8d 4c 24 20	 lea	 rcx, QWORD PTR relocs$[rsp]
  000af	e8 00 00 00 00	 call	 ??$_Emplace_reallocate@AEBURelocInfo@portable_executable@@@?$vector@URelocInfo@portable_executable@@V?$allocator@URelocInfo@portable_executable@@@std@@@std@@QEAAPEAURelocInfo@portable_executable@@QEAU23@AEBU23@@Z ; std::vector<portable_executable::RelocInfo,std::allocator<portable_executable::RelocInfo> >::_Emplace_reallocate<portable_executable::RelocInfo const &>
  000b4	48 8b 54 24 30	 mov	 rdx, QWORD PTR relocs$[rsp+16]
  000b9	48 8b 4c 24 28	 mov	 rcx, QWORD PTR relocs$[rsp+8]
$LN27@get_reloca:
; File C:\Users\vin\Downloads\ApexIsAssWithEAC-main\ApexIsAssWithEAC-main\sinmapper\drv_image.cpp

; 87   : 			current_base_relocation = reinterpret_cast<PIMAGE_BASE_RELOCATION>(reinterpret_cast<uint64_t>(current_base_relocation) + current_base_relocation->SizeOfBlock);

  000be	8b 43 04	 mov	 eax, DWORD PTR [rbx+4]
  000c1	48 03 d8	 add	 rbx, rax

; 76   : 
; 77   : 		while (current_base_relocation->VirtualAddress)

  000c4	8b 03		 mov	 eax, DWORD PTR [rbx]
  000c6	85 c0		 test	 eax, eax
  000c8	75 96		 jne	 SHORT $LL2@get_reloca
$LN3@get_reloca:
; File C:\Program Files (x86)\Microsoft Visual Studio\2019\Community\VC\Tools\MSVC\14.29.30133\include\vector

; 393  :         : _Myfirst(_First), _Mylast(_Last), _Myend(_End) {}

  000ca	48 8b 44 24 20	 mov	 rax, QWORD PTR relocs$[rsp]
  000cf	48 89 07	 mov	 QWORD PTR [rdi], rax
  000d2	48 89 4f 08	 mov	 QWORD PTR [rdi+8], rcx
  000d6	48 89 57 10	 mov	 QWORD PTR [rdi+16], rdx
; File C:\Users\vin\Downloads\ApexIsAssWithEAC-main\ApexIsAssWithEAC-main\sinmapper\drv_image.cpp

; 91   : 	}

  000da	48 8b c7	 mov	 rax, rdi
  000dd	48 8b 5c 24 60	 mov	 rbx, QWORD PTR [rsp+96]
  000e2	48 8b 74 24 68	 mov	 rsi, QWORD PTR [rsp+104]
  000e7	48 83 c4 50	 add	 rsp, 80			; 00000050H
  000eb	5f		 pop	 rdi
  000ec	c3		 ret	 0
$LN75@get_reloca:
; File C:\Program Files (x86)\Microsoft Visual Studio\2019\Community\VC\Tools\MSVC\14.29.30133\include\vector

; 390  :     _CONSTEXPR20_CONTAINER _Vector_val() noexcept : _Myfirst(), _Mylast(), _Myend() {}

  000ed	33 d2		 xor	 edx, edx
  000ef	48 89 11	 mov	 QWORD PTR [rcx], rdx
  000f2	48 89 51 08	 mov	 QWORD PTR [rcx+8], rdx
  000f6	48 89 51 10	 mov	 QWORD PTR [rcx+16], rdx
; File C:\Users\vin\Downloads\ApexIsAssWithEAC-main\ApexIsAssWithEAC-main\sinmapper\drv_image.cpp

; 91   : 	}

  000fa	48 8b c7	 mov	 rax, rdi
  000fd	48 8b 5c 24 60	 mov	 rbx, QWORD PTR [rsp+96]
  00102	48 8b 74 24 68	 mov	 rsi, QWORD PTR [rsp+104]
  00107	48 83 c4 50	 add	 rsp, 80			; 00000050H
  0010b	5f		 pop	 rdi
  0010c	c3		 ret	 0
?get_relocations@portable_executable@@YA?AV?$vector@URelocInfo@portable_executable@@V?$allocator@URelocInfo@portable_executable@@@std@@@std@@PEAX@Z ENDP ; portable_executable::get_relocations
_TEXT	ENDS
text$x	SEGMENT
relocs$ = 32
reloc_info$1 = 56
__$ReturnUdt$ = 96
image_base$ = 104
?dtor$1@?0??get_relocations@portable_executable@@YA?AV?$vector@URelocInfo@portable_executable@@V?$allocator@URelocInfo@portable_executable@@@std@@@std@@PEAX@Z@4HA PROC ; `portable_executable::get_relocations'::`1'::dtor$1
  00000	48 8d 8a 20 00
	00 00		 lea	 rcx, QWORD PTR relocs$[rdx]
  00007	e9 00 00 00 00	 jmp	 ??1?$vector@URelocInfo@portable_executable@@V?$allocator@URelocInfo@portable_executable@@@std@@@std@@QEAA@XZ ; std::vector<portable_executable::RelocInfo,std::allocator<portable_executable::RelocInfo> >::~vector<portable_executable::RelocInfo,std::allocator<portable_executable::RelocInfo> >
?dtor$1@?0??get_relocations@portable_executable@@YA?AV?$vector@URelocInfo@portable_executable@@V?$allocator@URelocInfo@portable_executable@@@std@@@std@@PEAX@Z@4HA ENDP ; `portable_executable::get_relocations'::`1'::dtor$1
text$x	ENDS
; Function compile flags: /Ogtpy
text$x	SEGMENT
relocs$ = 32
reloc_info$1 = 56
__$ReturnUdt$ = 96
image_base$ = 104
?dtor$1@?0??get_relocations@portable_executable@@YA?AV?$vector@URelocInfo@portable_executable@@V?$allocator@URelocInfo@portable_executable@@@std@@@std@@PEAX@Z@4HA PROC ; `portable_executable::get_relocations'::`1'::dtor$1
  00000	48 8d 8a 20 00
	00 00		 lea	 rcx, QWORD PTR relocs$[rdx]
  00007	e9 00 00 00 00	 jmp	 ??1?$vector@URelocInfo@portable_executable@@V?$allocator@URelocInfo@portable_executable@@@std@@@std@@QEAA@XZ ; std::vector<portable_executable::RelocInfo,std::allocator<portable_executable::RelocInfo> >::~vector<portable_executable::RelocInfo,std::allocator<portable_executable::RelocInfo> >
?dtor$1@?0??get_relocations@portable_executable@@YA?AV?$vector@URelocInfo@portable_executable@@V?$allocator@URelocInfo@portable_executable@@@std@@@std@@PEAX@Z@4HA ENDP ; `portable_executable::get_relocations'::`1'::dtor$1
text$x	ENDS
; Function compile flags: /Ogtpy
; File C:\Users\vin\Downloads\ApexIsAssWithEAC-main\ApexIsAssWithEAC-main\sinmapper\drv_image.cpp
; File C:\Program Files (x86)\Microsoft Visual Studio\2019\Community\VC\Tools\MSVC\14.29.30133\include\vector
; File C:\Program Files (x86)\Microsoft Visual Studio\2019\Community\VC\Tools\MSVC\14.29.30133\include\xmemory
; File C:\Program Files (x86)\Microsoft Visual Studio\2019\Community\VC\Tools\MSVC\14.29.30133\include\vector
; File C:\Users\vin\Downloads\ApexIsAssWithEAC-main\ApexIsAssWithEAC-main\sinmapper\drv_image.cpp
; File C:\Program Files (x86)\Microsoft Visual Studio\2019\Community\VC\Tools\MSVC\14.29.30133\include\xmemory
; File C:\Users\vin\Downloads\ApexIsAssWithEAC-main\ApexIsAssWithEAC-main\sinmapper\drv_image.cpp
_TEXT	SEGMENT
relocs$ = 48
delta$ = 56
?relocate_image_by_delta@portable_executable@@YAXV?$vector@URelocInfo@portable_executable@@V?$allocator@URelocInfo@portable_executable@@@std@@@std@@_K@Z PROC ; portable_executable::relocate_image_by_delta

; 6    : 	{

$LN48:
  00000	40 53		 push	 rbx
  00002	48 83 ec 20	 sub	 rsp, 32			; 00000020H
  00006	48 8b d9	 mov	 rbx, rcx

; 7    : 		for (const auto& current_reloc : relocs)

  00009	48 8b 09	 mov	 rcx, QWORD PTR [rcx]
  0000c	4c 8b 5b 08	 mov	 r11, QWORD PTR [rbx+8]
  00010	49 3b cb	 cmp	 rcx, r11
  00013	74 6d		 je	 SHORT $LN3@relocate_i
  00015	48 89 74 24 30	 mov	 QWORD PTR [rsp+48], rsi
  0001a	be 00 a0 00 00	 mov	 esi, 40960		; 0000a000H
  0001f	48 89 7c 24 38	 mov	 QWORD PTR [rsp+56], rdi
  00024	bf 00 f0 00 00	 mov	 edi, 61440		; 0000f000H
  00029	0f 1f 80 00 00
	00 00		 npad	 7
$LL4@relocate_i:

; 8    : 		{
; 9    : 			for (auto i = 0u; i < current_reloc.count; ++i)

  00030	45 33 c0	 xor	 r8d, r8d
  00033	44 39 41 10	 cmp	 DWORD PTR [rcx+16], r8d
  00037	76 33		 jbe	 SHORT $LN2@relocate_i
  00039	0f 1f 80 00 00
	00 00		 npad	 7
$LL7@relocate_i:

; 10   : 			{
; 11   : 				const uint16_t type = current_reloc.item[i] >> 12;
; 12   : 				const uint16_t offset = current_reloc.item[i] & 0xFFF;

  00040	48 8b 41 08	 mov	 rax, QWORD PTR [rcx+8]
  00044	46 0f b7 0c 40	 movzx	 r9d, WORD PTR [rax+r8*2]

; 13   : 
; 14   : 				if (type == IMAGE_REL_BASED_DIR64)

  00049	41 0f b7 c1	 movzx	 eax, r9w
  0004d	66 23 c7	 and	 ax, di
  00050	66 3b c6	 cmp	 ax, si
  00053	75 0e		 jne	 SHORT $LN5@relocate_i

; 15   : 					*reinterpret_cast<uint64_t*>(current_reloc.address + offset) += delta;

  00055	48 8b 01	 mov	 rax, QWORD PTR [rcx]
  00058	41 81 e1 ff 0f
	00 00		 and	 r9d, 4095		; 00000fffH
  0005f	49 01 14 01	 add	 QWORD PTR [r9+rax], rdx
$LN5@relocate_i:

; 8    : 		{
; 9    : 			for (auto i = 0u; i < current_reloc.count; ++i)

  00063	41 ff c0	 inc	 r8d
  00066	44 3b 41 10	 cmp	 r8d, DWORD PTR [rcx+16]
  0006a	72 d4		 jb	 SHORT $LL7@relocate_i
$LN2@relocate_i:

; 7    : 		for (const auto& current_reloc : relocs)

  0006c	48 83 c1 18	 add	 rcx, 24
  00070	49 3b cb	 cmp	 rcx, r11
  00073	75 bb		 jne	 SHORT $LL4@relocate_i
  00075	48 8b 0b	 mov	 rcx, QWORD PTR [rbx]
  00078	48 8b 7c 24 38	 mov	 rdi, QWORD PTR [rsp+56]
  0007d	48 8b 74 24 30	 mov	 rsi, QWORD PTR [rsp+48]
$LN3@relocate_i:
; File C:\Program Files (x86)\Microsoft Visual Studio\2019\Community\VC\Tools\MSVC\14.29.30133\include\vector

; 1750 :         if (_Myfirst) { // destroy and deallocate old array

  00082	48 85 c9	 test	 rcx, rcx
  00085	74 5e		 je	 SHORT $LN13@relocate_i

; 1751 :             _Destroy(_Myfirst, _Mylast);
; 1752 :             _Getal().deallocate(_Myfirst, static_cast<size_type>(_Myend - _Myfirst));

  00087	48 8b 43 10	 mov	 rax, QWORD PTR [rbx+16]
  0008b	48 ba ab aa aa
	aa aa aa aa aa	 mov	 rdx, -6148914691236517205 ; aaaaaaaaaaaaaaabH
  00095	48 2b c1	 sub	 rax, rcx
  00098	48 c1 f8 03	 sar	 rax, 3
  0009c	48 0f af c2	 imul	 rax, rdx
; File C:\Program Files (x86)\Microsoft Visual Studio\2019\Community\VC\Tools\MSVC\14.29.30133\include\xmemory

; 797  :         _Deallocate<_New_alignof<_Ty>>(_Ptr, sizeof(_Ty) * _Count);

  000a0	48 8d 14 40	 lea	 rdx, QWORD PTR [rax+rax*2]
  000a4	48 c1 e2 03	 shl	 rdx, 3

; 251  :         if (_Bytes >= _Big_allocation_threshold) { // boost the alignment of big allocations to help autovectorization

  000a8	48 81 fa 00 10
	00 00		 cmp	 rdx, 4096		; 00001000H
  000af	72 18		 jb	 SHORT $LN29@relocate_i

; 150  :     const uintptr_t _Ptr_container   = _Ptr_user[-1];

  000b1	48 8b 41 f8	 mov	 rax, QWORD PTR [rcx-8]
  000b5	48 83 c2 27	 add	 rdx, 39			; 00000027H

; 151  : 
; 152  :     // If the following asserts, it likely means that we are performing
; 153  :     // an aligned delete on memory coming from an unaligned allocation.
; 154  :     _STL_ASSERT(_Ptr_user[-2] == _Big_allocation_sentinel, "invalid argument");
; 155  : 
; 156  :     // Extra paranoia on aligned allocation/deallocation; ensure _Ptr_container is
; 157  :     // in range [_Min_back_shift, _Non_user_size]
; 158  : #ifdef _DEBUG
; 159  :     constexpr uintptr_t _Min_back_shift = 2 * sizeof(void*);
; 160  : #else // ^^^ _DEBUG ^^^ // vvv !_DEBUG vvv
; 161  :     constexpr uintptr_t _Min_back_shift = sizeof(void*);
; 162  : #endif // _DEBUG
; 163  :     const uintptr_t _Back_shift = reinterpret_cast<uintptr_t>(_Ptr) - _Ptr_container;

  000b9	48 2b c8	 sub	 rcx, rax

; 164  :     _STL_VERIFY(_Back_shift >= _Min_back_shift && _Back_shift <= _Non_user_size, "invalid argument");

  000bc	48 83 c1 f8	 add	 rcx, -8
  000c0	48 83 f9 1f	 cmp	 rcx, 31
  000c4	77 25		 ja	 SHORT $LN26@relocate_i

; 165  :     _Ptr = reinterpret_cast<void*>(_Ptr_container);

  000c6	48 8b c8	 mov	 rcx, rax
$LN29@relocate_i:

; 255  :         ::operator delete(_Ptr, _Bytes);

  000c9	e8 00 00 00 00	 call	 ??3@YAXPEAX_K@Z		; operator delete
; File C:\Program Files (x86)\Microsoft Visual Studio\2019\Community\VC\Tools\MSVC\14.29.30133\include\vector

; 1754 :             _Myfirst = nullptr;

  000ce	48 c7 03 00 00
	00 00		 mov	 QWORD PTR [rbx], 0

; 1755 :             _Mylast  = nullptr;

  000d5	48 c7 43 08 00
	00 00 00	 mov	 QWORD PTR [rbx+8], 0

; 1756 :             _Myend   = nullptr;

  000dd	48 c7 43 10 00
	00 00 00	 mov	 QWORD PTR [rbx+16], 0
$LN13@relocate_i:
; File C:\Users\vin\Downloads\ApexIsAssWithEAC-main\ApexIsAssWithEAC-main\sinmapper\drv_image.cpp

; 18   : 	}

  000e5	48 83 c4 20	 add	 rsp, 32			; 00000020H
  000e9	5b		 pop	 rbx
  000ea	c3		 ret	 0
$LN26@relocate_i:
; File C:\Program Files (x86)\Microsoft Visual Studio\2019\Community\VC\Tools\MSVC\14.29.30133\include\xmemory

; 164  :     _STL_VERIFY(_Back_shift >= _Min_back_shift && _Back_shift <= _Non_user_size, "invalid argument");

  000eb	ff 15 00 00 00
	00		 call	 QWORD PTR __imp__invalid_parameter_noinfo_noreturn
  000f1	cc		 int	 3
$LN45@relocate_i:
?relocate_image_by_delta@portable_executable@@YAXV?$vector@URelocInfo@portable_executable@@V?$allocator@URelocInfo@portable_executable@@@std@@@std@@_K@Z ENDP ; portable_executable::relocate_image_by_delta
_TEXT	ENDS
; Function compile flags: /Ogtpy
; File C:\Users\vin\Downloads\ApexIsAssWithEAC-main\ApexIsAssWithEAC-main\sinmapper\drv_image.cpp
; File C:\Program Files (x86)\Microsoft Visual Studio\2019\Community\VC\Tools\MSVC\14.29.30133\include\vector
; File C:\Users\vin\Downloads\ApexIsAssWithEAC-main\ApexIsAssWithEAC-main\sinmapper\drv_image.cpp
; File C:\Program Files (x86)\Microsoft Visual Studio\2019\Community\VC\Tools\MSVC\14.29.30133\include\xstring
; File C:\Program Files (x86)\Microsoft Visual Studio\2019\Community\VC\Tools\MSVC\14.29.30133\include\vector
; File C:\Users\vin\Downloads\ApexIsAssWithEAC-main\ApexIsAssWithEAC-main\sinmapper\drv_image.cpp
; File C:\Program Files (x86)\Microsoft Visual Studio\2019\Community\VC\Tools\MSVC\14.29.30133\include\xstring
; File C:\Users\vin\Downloads\ApexIsAssWithEAC-main\ApexIsAssWithEAC-main\sinmapper\drv_image.cpp
; File C:\Program Files (x86)\Microsoft Visual Studio\2019\Community\VC\Tools\MSVC\14.29.30133\include\xstring
; File C:\Users\vin\Downloads\ApexIsAssWithEAC-main\ApexIsAssWithEAC-main\sinmapper\drv_image.cpp
; File C:\Program Files (x86)\Microsoft Visual Studio\2019\Community\VC\Tools\MSVC\14.29.30133\include\xstring
; File C:\Users\vin\Downloads\ApexIsAssWithEAC-main\ApexIsAssWithEAC-main\sinmapper\drv_image.cpp
; File C:\Program Files (x86)\Microsoft Visual Studio\2019\Community\VC\Tools\MSVC\14.29.30133\include\vector
; File C:\Users\vin\Downloads\ApexIsAssWithEAC-main\ApexIsAssWithEAC-main\sinmapper\drv_image.cpp
; File C:\Program Files (x86)\Microsoft Visual Studio\2019\Community\VC\Tools\MSVC\14.29.30133\include\xstring
; File C:\Program Files (x86)\Microsoft Visual Studio\2019\Community\VC\Tools\MSVC\14.29.30133\include\xmemory
; File C:\Users\vin\Downloads\ApexIsAssWithEAC-main\ApexIsAssWithEAC-main\sinmapper\drv_image.cpp
; File C:\Program Files (x86)\Microsoft Visual Studio\2019\Community\VC\Tools\MSVC\14.29.30133\include\vector
; File C:\Program Files (x86)\Microsoft Visual Studio\2019\Community\VC\Tools\MSVC\14.29.30133\include\xmemory
; File C:\Program Files (x86)\Microsoft Visual Studio\2019\Community\VC\Tools\MSVC\14.29.30133\include\vector
; File C:\Program Files (x86)\Microsoft Visual Studio\2019\Community\VC\Tools\MSVC\14.29.30133\include\xmemory
; File C:\Program Files (x86)\Microsoft Visual Studio\2019\Community\VC\Tools\MSVC\14.29.30133\include\vector
; File C:\Program Files (x86)\Microsoft Visual Studio\2019\Community\VC\Tools\MSVC\14.29.30133\include\xmemory
; File C:\Program Files (x86)\Microsoft Visual Studio\2019\Community\VC\Tools\MSVC\14.29.30133\include\vector
; File C:\Users\vin\Downloads\ApexIsAssWithEAC-main\ApexIsAssWithEAC-main\sinmapper\drv_image.cpp
; File C:\Program Files (x86)\Microsoft Visual Studio\2019\Community\VC\Tools\MSVC\14.29.30133\include\vector
; File C:\Program Files (x86)\Microsoft Visual Studio\2019\Community\VC\Tools\MSVC\14.29.30133\include\xmemory
; File C:\Program Files (x86)\Microsoft Visual Studio\2019\Community\VC\Tools\MSVC\14.29.30133\include\xstring
; File C:\Program Files (x86)\Microsoft Visual Studio\2019\Community\VC\Tools\MSVC\14.29.30133\include\xmemory
; File C:\Program Files (x86)\Microsoft Visual Studio\2019\Community\VC\Tools\MSVC\14.29.30133\include\xstring
; File C:\Program Files (x86)\Microsoft Visual Studio\2019\Community\VC\Tools\MSVC\14.29.30133\include\xmemory
; File C:\Program Files (x86)\Microsoft Visual Studio\2019\Community\VC\Tools\MSVC\14.29.30133\include\vector
; File C:\Program Files (x86)\Microsoft Visual Studio\2019\Community\VC\Tools\MSVC\14.29.30133\include\xmemory
; File C:\Program Files (x86)\Microsoft Visual Studio\2019\Community\VC\Tools\MSVC\14.29.30133\include\xstring
; File C:\Program Files (x86)\Microsoft Visual Studio\2019\Community\VC\Tools\MSVC\14.29.30133\include\xmemory
; File C:\Users\vin\Downloads\ApexIsAssWithEAC-main\ApexIsAssWithEAC-main\sinmapper\drv_image.cpp
; File C:\Program Files (x86)\Microsoft Visual Studio\2019\Community\VC\Tools\MSVC\14.29.30133\include\xmemory
; File C:\Users\vin\Downloads\ApexIsAssWithEAC-main\ApexIsAssWithEAC-main\sinmapper\drv_image.cpp
; File C:\Program Files (x86)\Microsoft Visual Studio\2019\Community\VC\Tools\MSVC\14.29.30133\include\vector
; File C:\Users\vin\Downloads\ApexIsAssWithEAC-main\ApexIsAssWithEAC-main\sinmapper\drv_image.cpp
; File C:\Program Files (x86)\Microsoft Visual Studio\2019\Community\VC\Tools\MSVC\14.29.30133\include\vector
; File C:\Users\vin\Downloads\ApexIsAssWithEAC-main\ApexIsAssWithEAC-main\sinmapper\drv_image.cpp
; File C:\Program Files (x86)\Microsoft Visual Studio\2019\Community\VC\Tools\MSVC\14.29.30133\include\xmemory
; File C:\Users\vin\Downloads\ApexIsAssWithEAC-main\ApexIsAssWithEAC-main\sinmapper\drv_image.cpp
_TEXT	SEGMENT
current_import_descriptor$1$ = 32
__$ReturnUdt$GSCopy$ = 32
imports$ = 40
image_base$GSCopy$1$ = 64
__$ReturnUdt$GSCopy$1$ = 72
$T1 = 80
_Guard$2 = 88
_Backout$3 = 96
import_function_data$4 = 96
$T5 = 96
import_info$6 = 136
__$ArrayPad$ = 192
__$ReturnUdt$ = 272
image_base$ = 280
?get_imports@portable_executable@@YA?AV?$vector@UImportInfo@portable_executable@@V?$allocator@UImportInfo@portable_executable@@@std@@@std@@PEAX@Z PROC ; portable_executable::get_imports

; 94   : 	{

$LN504:
  00000	48 89 5c 24 18	 mov	 QWORD PTR [rsp+24], rbx
  00005	55		 push	 rbp
  00006	56		 push	 rsi
  00007	57		 push	 rdi
  00008	41 54		 push	 r12
  0000a	41 55		 push	 r13
  0000c	41 56		 push	 r14
  0000e	41 57		 push	 r15
  00010	48 8d 6c 24 d9	 lea	 rbp, QWORD PTR [rsp-39]
  00015	48 81 ec d0 00
	00 00		 sub	 rsp, 208		; 000000d0H
  0001c	48 8b 05 00 00
	00 00		 mov	 rax, QWORD PTR __security_cookie
  00023	48 33 c4	 xor	 rax, rsp
  00026	48 89 45 17	 mov	 QWORD PTR __$ArrayPad$[rbp-169], rax
  0002a	4c 8b fa	 mov	 r15, rdx
  0002d	48 89 55 97	 mov	 QWORD PTR image_base$GSCopy$1$[rbp-169], rdx
  00031	48 8b d1	 mov	 rdx, rcx
  00034	48 89 4d 9f	 mov	 QWORD PTR __$ReturnUdt$GSCopy$1$[rbp-169], rcx
  00038	48 89 4c 24 20	 mov	 QWORD PTR __$ReturnUdt$GSCopy$[rsp], rcx

; 55   : 		if (dos_header->e_magic != IMAGE_DOS_SIGNATURE)

  0003d	b8 4d 5a 00 00	 mov	 eax, 23117		; 00005a4dH
  00042	66 41 39 07	 cmp	 WORD PTR [r15], ax
  00046	0f 85 fa 03 00
	00		 jne	 $LN494@get_import

; 56   : 			return nullptr;
; 57   : 
; 58   : 		const auto nt_headers = reinterpret_cast<PIMAGE_NT_HEADERS64>(reinterpret_cast<uint64_t>(image_base) + dos_header->e_lfanew);

  0004c	49 63 47 3c	 movsxd	 rax, DWORD PTR [r15+60]

; 59   : 
; 60   : 		if (nt_headers->Signature != IMAGE_NT_SIGNATURE)

  00050	42 81 3c 38 50
	45 00 00	 cmp	 DWORD PTR [rax+r15], 17744 ; 00004550H
  00058	0f 85 e8 03 00
	00		 jne	 $LN494@get_import
  0005e	0f 57 c0	 xorps	 xmm0, xmm0
; File C:\Program Files (x86)\Microsoft Visual Studio\2019\Community\VC\Tools\MSVC\14.29.30133\include\vector

; 390  :     _CONSTEXPR20_CONTAINER _Vector_val() noexcept : _Myfirst(), _Mylast(), _Myend() {}

  00061	f3 0f 7f 44 24
	28		 movdqu	 XMMWORD PTR imports$[rsp], xmm0
  00067	45 33 e4	 xor	 r12d, r12d
  0006a	4c 89 65 8f	 mov	 QWORD PTR imports$[rbp-153], r12
; File C:\Users\vin\Downloads\ApexIsAssWithEAC-main\ApexIsAssWithEAC-main\sinmapper\drv_image.cpp

; 102  : 		auto current_import_descriptor = reinterpret_cast<PIMAGE_IMPORT_DESCRIPTOR>(reinterpret_cast<uint64_t>(image_base) + nt_headers->OptionalHeader.DataDirectory[IMAGE_DIRECTORY_ENTRY_IMPORT].VirtualAddress);

  0006e	42 8b 9c 38 90
	00 00 00	 mov	 ebx, DWORD PTR [rax+r15+144]
  00076	49 03 df	 add	 rbx, r15
  00079	48 89 5c 24 20	 mov	 QWORD PTR current_import_descriptor$1$[rsp], rbx

; 104  : 		while (current_import_descriptor->FirstThunk)

  0007e	4c 8b 6d 87	 mov	 r13, QWORD PTR imports$[rbp-161]
  00082	44 39 63 10	 cmp	 DWORD PTR [rbx+16], r12d
  00086	0f 84 a4 03 00
	00		 je	 $LN495@get_import
  0008c	0f 1f 40 00	 npad	 4
$LL2@get_import:
; File C:\Program Files (x86)\Microsoft Visual Studio\2019\Community\VC\Tools\MSVC\14.29.30133\include\xstring

; 2313 :         _CONSTEXPR20_CONTAINER _Bxty() noexcept : _Ptr() {} // user-provided, for fancy pointers

  00090	4c 89 65 df	 mov	 QWORD PTR import_info$6[rbp-169], r12

; 4562 :         _My_data._Mysize = 0;

  00094	4c 89 65 ef	 mov	 QWORD PTR import_info$6[rbp-153], r12

; 4563 : 
; 4564 : #ifdef __cpp_lib_constexpr_string
; 4565 :         if (_STD is_constant_evaluated()) {
; 4566 :             _My_data._Myres        = _BUF_SIZE; // SSO disabled in constexpr context
; 4567 :             auto& _Al              = _Getal();
; 4568 :             const pointer _New_ptr = _Al.allocate(_BUF_SIZE + 1); // throws
; 4569 :             _My_data._Bx._Ptr      = _New_ptr;
; 4570 : 
; 4571 :             _Elem* const _Raw_new = _Unfancy(_New_ptr);
; 4572 :             _Traits::assign(_Raw_new, _BUF_SIZE + 1, _Elem());
; 4573 :         } else
; 4574 : #endif // __cpp_lib_constexpr_string
; 4575 :         {
; 4576 :             _My_data._Myres = _BUF_SIZE - 1;

  00098	48 c7 45 f7 0f
	00 00 00	 mov	 QWORD PTR import_info$6[rbp-145], 15

; 4577 :             // the _Traits::assign is last so the codegen doesn't think the char write can alias this
; 4578 :             _Traits::assign(_My_data._Bx._Buf[0], _Elem());

  000a0	c6 45 df 00	 mov	 BYTE PTR import_info$6[rbp-169], 0
  000a4	0f 57 c0	 xorps	 xmm0, xmm0
; File C:\Program Files (x86)\Microsoft Visual Studio\2019\Community\VC\Tools\MSVC\14.29.30133\include\vector

; 390  :     _CONSTEXPR20_CONTAINER _Vector_val() noexcept : _Myfirst(), _Mylast(), _Myend() {}

  000a7	f3 0f 7f 45 ff	 movdqu	 XMMWORD PTR import_info$6[rbp-137], xmm0
  000ac	4d 8b f4	 mov	 r14, r12
  000af	4c 89 65 0f	 mov	 QWORD PTR import_info$6[rbp-121], r12
; File C:\Users\vin\Downloads\ApexIsAssWithEAC-main\ApexIsAssWithEAC-main\sinmapper\drv_image.cpp

; 108  : 			import_info.module_name = std::string(reinterpret_cast<char*>(reinterpret_cast<uint64_t>(image_base) + current_import_descriptor->Name));

  000b3	8b 53 0c	 mov	 edx, DWORD PTR [rbx+12]
  000b6	49 03 d7	 add	 rdx, r15
; File C:\Program Files (x86)\Microsoft Visual Studio\2019\Community\VC\Tools\MSVC\14.29.30133\include\xstring

; 2313 :         _CONSTEXPR20_CONTAINER _Bxty() noexcept : _Ptr() {} // user-provided, for fancy pointers

  000b9	4c 89 65 b7	 mov	 QWORD PTR $T5[rbp-169], r12

; 4562 :         _My_data._Mysize = 0;

  000bd	4c 89 65 c7	 mov	 QWORD PTR $T5[rbp-153], r12

; 4563 : 
; 4564 : #ifdef __cpp_lib_constexpr_string
; 4565 :         if (_STD is_constant_evaluated()) {
; 4566 :             _My_data._Myres        = _BUF_SIZE; // SSO disabled in constexpr context
; 4567 :             auto& _Al              = _Getal();
; 4568 :             const pointer _New_ptr = _Al.allocate(_BUF_SIZE + 1); // throws
; 4569 :             _My_data._Bx._Ptr      = _New_ptr;
; 4570 : 
; 4571 :             _Elem* const _Raw_new = _Unfancy(_New_ptr);
; 4572 :             _Traits::assign(_Raw_new, _BUF_SIZE + 1, _Elem());
; 4573 :         } else
; 4574 : #endif // __cpp_lib_constexpr_string
; 4575 :         {
; 4576 :             _My_data._Myres = _BUF_SIZE - 1;

  000c1	48 c7 45 cf 0f
	00 00 00	 mov	 QWORD PTR $T5[rbp-145], 15

; 401  :             return __builtin_strlen(_First);

  000c9	49 c7 c0 ff ff
	ff ff		 mov	 r8, -1
$LL497@get_import:
  000d0	49 ff c0	 inc	 r8
  000d3	42 80 3c 02 00	 cmp	 BYTE PTR [rdx+r8], 0
  000d8	75 f6		 jne	 SHORT $LL497@get_import

; 3230 :         return assign(_Ptr, _Convert_size<size_type>(_Traits::length(_Ptr)));

  000da	48 8d 4d b7	 lea	 rcx, QWORD PTR $T5[rbp-169]
  000de	e8 00 00 00 00	 call	 ?assign@?$basic_string@DU?$char_traits@D@std@@V?$allocator@D@2@@std@@QEAAAEAV12@QEBD_K@Z ; std::basic_string<char,std::char_traits<char>,std::allocator<char> >::assign

; 2835 :         _CSTD memcpy(_My_data_mem, _Right_data_mem, _Memcpy_val_size);

  000e3	0f 10 45 b7	 movups	 xmm0, XMMWORD PTR $T5[rbp-169]
  000e7	0f 11 45 df	 movups	 XMMWORD PTR import_info$6[rbp-169], xmm0
  000eb	0f 10 4d c7	 movups	 xmm1, XMMWORD PTR $T5[rbp-153]
  000ef	0f 11 4d ef	 movups	 XMMWORD PTR import_info$6[rbp-153], xmm1
; File C:\Users\vin\Downloads\ApexIsAssWithEAC-main\ApexIsAssWithEAC-main\sinmapper\drv_image.cpp

; 110  : 			auto current_first_thunk = reinterpret_cast<PIMAGE_THUNK_DATA64>(reinterpret_cast<uint64_t>(image_base) + current_import_descriptor->FirstThunk);

  000f3	8b 73 10	 mov	 esi, DWORD PTR [rbx+16]
  000f6	49 03 f7	 add	 rsi, r15

; 111  : 			auto current_originalFirstThunk = reinterpret_cast<PIMAGE_THUNK_DATA64>(reinterpret_cast<uint64_t>(image_base) + current_import_descriptor->OriginalFirstThunk);

  000f9	8b 3b		 mov	 edi, DWORD PTR [rbx]
  000fb	49 03 ff	 add	 rdi, r15

; 113  : 			while (current_originalFirstThunk->u1.Function)

  000fe	48 8b 07	 mov	 rax, QWORD PTR [rdi]
  00101	48 85 c0	 test	 rax, rax
  00104	0f 84 ce 00 00
	00		 je	 $LN5@get_import
  0010a	48 8b 5d 07	 mov	 rbx, QWORD PTR import_info$6[rbp-129]
  0010e	66 90		 npad	 2
$LL4@get_import:
; File C:\Program Files (x86)\Microsoft Visual Studio\2019\Community\VC\Tools\MSVC\14.29.30133\include\xstring

; 2313 :         _CONSTEXPR20_CONTAINER _Bxty() noexcept : _Ptr() {} // user-provided, for fancy pointers

  00110	4c 89 65 b7	 mov	 QWORD PTR import_function_data$4[rbp-169], r12

; 4562 :         _My_data._Mysize = 0;

  00114	4c 89 65 c7	 mov	 QWORD PTR import_function_data$4[rbp-153], r12

; 4563 : 
; 4564 : #ifdef __cpp_lib_constexpr_string
; 4565 :         if (_STD is_constant_evaluated()) {
; 4566 :             _My_data._Myres        = _BUF_SIZE; // SSO disabled in constexpr context
; 4567 :             auto& _Al              = _Getal();
; 4568 :             const pointer _New_ptr = _Al.allocate(_BUF_SIZE + 1); // throws
; 4569 :             _My_data._Bx._Ptr      = _New_ptr;
; 4570 : 
; 4571 :             _Elem* const _Raw_new = _Unfancy(_New_ptr);
; 4572 :             _Traits::assign(_Raw_new, _BUF_SIZE + 1, _Elem());
; 4573 :         } else
; 4574 : #endif // __cpp_lib_constexpr_string
; 4575 :         {
; 4576 :             _My_data._Myres = _BUF_SIZE - 1;

  00118	48 c7 45 cf 0f
	00 00 00	 mov	 QWORD PTR import_function_data$4[rbp-145], 15

; 4577 :             // the _Traits::assign is last so the codegen doesn't think the char write can alias this
; 4578 :             _Traits::assign(_My_data._Bx._Buf[0], _Elem());

  00120	c6 45 b7 00	 mov	 BYTE PTR import_function_data$4[rbp-169], 0
; File C:\Users\vin\Downloads\ApexIsAssWithEAC-main\ApexIsAssWithEAC-main\sinmapper\drv_image.cpp

; 119  : 				import_function_data.name = thunk_data->Name;

  00124	49 8d 57 02	 lea	 rdx, QWORD PTR [r15+2]
  00128	48 03 d0	 add	 rdx, rax
; File C:\Program Files (x86)\Microsoft Visual Studio\2019\Community\VC\Tools\MSVC\14.29.30133\include\xstring

; 401  :             return __builtin_strlen(_First);

  0012b	49 c7 c0 ff ff
	ff ff		 mov	 r8, -1
$LL496@get_import:
  00132	49 ff c0	 inc	 r8
  00135	42 80 3c 02 00	 cmp	 BYTE PTR [rdx+r8], 0
  0013a	75 f6		 jne	 SHORT $LL496@get_import

; 3230 :         return assign(_Ptr, _Convert_size<size_type>(_Traits::length(_Ptr)));

  0013c	48 8d 4d b7	 lea	 rcx, QWORD PTR import_function_data$4[rbp-169]
  00140	e8 00 00 00 00	 call	 ?assign@?$basic_string@DU?$char_traits@D@std@@V?$allocator@D@2@@std@@QEAAAEAV12@QEBD_K@Z ; std::basic_string<char,std::char_traits<char>,std::allocator<char> >::assign
; File C:\Users\vin\Downloads\ApexIsAssWithEAC-main\ApexIsAssWithEAC-main\sinmapper\drv_image.cpp

; 120  : 				import_function_data.address = &current_first_thunk->u1.Function;

  00145	48 89 75 d7	 mov	 QWORD PTR import_function_data$4[rbp-137], rsi
; File C:\Program Files (x86)\Microsoft Visual Studio\2019\Community\VC\Tools\MSVC\14.29.30133\include\vector

; 730  :         if (_Mylast != _My_data._Myend) {

  00149	49 3b de	 cmp	 rbx, r14
  0014c	74 1e		 je	 SHORT $LN165@get_import
  0014e	48 8d 55 b7	 lea	 rdx, QWORD PTR import_function_data$4[rbp-169]
  00152	48 8b cb	 mov	 rcx, rbx
  00155	e8 00 00 00 00	 call	 ??0?$basic_string@DU?$char_traits@D@std@@V?$allocator@D@2@@std@@QEAA@AEBV01@@Z ; std::basic_string<char,std::char_traits<char>,std::allocator<char> >::basic_string<char,std::char_traits<char>,std::allocator<char> >
  0015a	48 8b 45 d7	 mov	 rax, QWORD PTR import_function_data$4[rbp-137]
  0015e	48 89 43 20	 mov	 QWORD PTR [rbx+32], rax

; 716  :         ++_Mylast;

  00162	48 83 c3 28	 add	 rbx, 40			; 00000028H
  00166	48 89 5d 07	 mov	 QWORD PTR import_info$6[rbp-129], rbx

; 731  :             return _Emplace_back_with_unused_capacity(_STD forward<_Valty>(_Val)...);

  0016a	eb 18		 jmp	 SHORT $LN164@get_import
$LN165@get_import:

; 732  :         }
; 733  : 
; 734  :         _Ty& _Result = *_Emplace_reallocate(_Mylast, _STD forward<_Valty>(_Val)...);

  0016c	4c 8d 45 b7	 lea	 r8, QWORD PTR import_function_data$4[rbp-169]
  00170	48 8b d3	 mov	 rdx, rbx
  00173	48 8d 4d ff	 lea	 rcx, QWORD PTR import_info$6[rbp-137]
  00177	e8 00 00 00 00	 call	 ??$_Emplace_reallocate@AEBUImportFunctionInfo@portable_executable@@@?$vector@UImportFunctionInfo@portable_executable@@V?$allocator@UImportFunctionInfo@portable_executable@@@std@@@std@@QEAAPEAUImportFunctionInfo@portable_executable@@QEAU23@AEBU23@@Z ; std::vector<portable_executable::ImportFunctionInfo,std::allocator<portable_executable::ImportFunctionInfo> >::_Emplace_reallocate<portable_executable::ImportFunctionInfo const &>
  0017c	4c 8b 75 0f	 mov	 r14, QWORD PTR import_info$6[rbp-121]
  00180	48 8b 5d 07	 mov	 rbx, QWORD PTR import_info$6[rbp-129]
$LN164@get_import:
; File C:\Users\vin\Downloads\ApexIsAssWithEAC-main\ApexIsAssWithEAC-main\sinmapper\drv_image.cpp

; 124  : 				++current_originalFirstThunk;

  00184	48 83 c7 08	 add	 rdi, 8

; 125  : 				++current_first_thunk;

  00188	48 83 c6 08	 add	 rsi, 8
; File C:\Program Files (x86)\Microsoft Visual Studio\2019\Community\VC\Tools\MSVC\14.29.30133\include\xstring

; 4584 :         if (_Mypair._Myval2._Large_string_engaged()) {

  0018c	48 8b 55 cf	 mov	 rdx, QWORD PTR import_function_data$4[rbp-145]
  00190	48 83 fa 10	 cmp	 rdx, 16
  00194	72 31		 jb	 SHORT $LN189@get_import

; 4586 :             auto& _Al          = _Getal();
; 4587 :             _Destroy_in_place(_Mypair._Myval2._Bx._Ptr);
; 4588 :             _Al.deallocate(_Ptr, _Mypair._Myval2._Myres + 1);

  00196	48 ff c2	 inc	 rdx
; File C:\Program Files (x86)\Microsoft Visual Studio\2019\Community\VC\Tools\MSVC\14.29.30133\include\xmemory

; 797  :         _Deallocate<_New_alignof<_Ty>>(_Ptr, sizeof(_Ty) * _Count);

  00199	48 8b 4d b7	 mov	 rcx, QWORD PTR import_function_data$4[rbp-169]
  0019d	48 8b c1	 mov	 rax, rcx

; 251  :         if (_Bytes >= _Big_allocation_threshold) { // boost the alignment of big allocations to help autovectorization

  001a0	48 81 fa 00 10
	00 00		 cmp	 rdx, 4096		; 00001000H
  001a7	72 19		 jb	 SHORT $LN199@get_import

; 147  :     _Bytes += _Non_user_size;

  001a9	48 83 c2 27	 add	 rdx, 39			; 00000027H

; 148  : 
; 149  :     const uintptr_t* const _Ptr_user = reinterpret_cast<uintptr_t*>(_Ptr);
; 150  :     const uintptr_t _Ptr_container   = _Ptr_user[-1];

  001ad	48 8b 49 f8	 mov	 rcx, QWORD PTR [rcx-8]
  001b1	48 2b c1	 sub	 rax, rcx

; 164  :     _STL_VERIFY(_Back_shift >= _Min_back_shift && _Back_shift <= _Non_user_size, "invalid argument");

  001b4	48 83 c0 f8	 add	 rax, -8
  001b8	48 83 f8 1f	 cmp	 rax, 31
  001bc	0f 87 55 02 00
	00		 ja	 $LN196@get_import
$LN199@get_import:

; 255  :         ::operator delete(_Ptr, _Bytes);

  001c2	e8 00 00 00 00	 call	 ??3@YAXPEAX_K@Z		; operator delete
$LN189@get_import:
; File C:\Users\vin\Downloads\ApexIsAssWithEAC-main\ApexIsAssWithEAC-main\sinmapper\drv_image.cpp

; 113  : 			while (current_originalFirstThunk->u1.Function)

  001c7	48 8b 07	 mov	 rax, QWORD PTR [rdi]
  001ca	48 85 c0	 test	 rax, rax
  001cd	0f 85 3d ff ff
	ff		 jne	 $LL4@get_import
  001d3	48 8b 5c 24 20	 mov	 rbx, QWORD PTR current_import_descriptor$1$[rsp]
$LN5@get_import:
; File C:\Program Files (x86)\Microsoft Visual Studio\2019\Community\VC\Tools\MSVC\14.29.30133\include\vector

; 730  :         if (_Mylast != _My_data._Myend) {

  001d8	4c 3b 6d 8f	 cmp	 r13, QWORD PTR imports$[rbp-153]
  001dc	0f 84 15 01 00
	00		 je	 $LN208@get_import
; File C:\Program Files (x86)\Microsoft Visual Studio\2019\Community\VC\Tools\MSVC\14.29.30133\include\xmemory

; 674  :     static _CONSTEXPR20_DYNALLOC void construct(_Alloc&, _Objty* const _Ptr, _Types&&... _Args) {

  001e2	4c 89 6d a7	 mov	 QWORD PTR $T1[rbp-169], r13
  001e6	48 8d 55 df	 lea	 rdx, QWORD PTR import_info$6[rbp-169]
  001ea	49 8b cd	 mov	 rcx, r13
  001ed	e8 00 00 00 00	 call	 ??0?$basic_string@DU?$char_traits@D@std@@V?$allocator@D@2@@std@@QEAA@AEBV01@@Z ; std::basic_string<char,std::char_traits<char>,std::allocator<char> >::basic_string<char,std::char_traits<char>,std::allocator<char> >
  001f2	90		 npad	 1
  001f3	4d 8d 75 20	 lea	 r14, QWORD PTR [r13+32]
; File C:\Program Files (x86)\Microsoft Visual Studio\2019\Community\VC\Tools\MSVC\14.29.30133\include\vector

; 390  :     _CONSTEXPR20_CONTAINER _Vector_val() noexcept : _Myfirst(), _Mylast(), _Myend() {}

  001f7	4d 89 26	 mov	 QWORD PTR [r14], r12
  001fa	4d 89 66 08	 mov	 QWORD PTR [r14+8], r12
  001fe	4d 89 66 10	 mov	 QWORD PTR [r14+16], r12

; 549  :         if (_Rightfirst != _Rightlast) {

  00202	4c 8b 7d ff	 mov	 r15, QWORD PTR import_info$6[rbp-137]
  00206	48 8b 75 07	 mov	 rsi, QWORD PTR import_info$6[rbp-129]
  0020a	4c 3b fe	 cmp	 r15, rsi
  0020d	0f 84 d5 00 00
	00		 je	 $LN278@get_import

; 550  :             _Buy_raw(static_cast<size_type>(_Rightlast - _Rightfirst));

  00213	48 8b c6	 mov	 rax, rsi
  00216	49 2b c7	 sub	 rax, r15
  00219	48 c1 f8 03	 sar	 rax, 3
  0021d	48 b9 cd cc cc
	cc cc cc cc cc	 mov	 rcx, -3689348814741910323 ; cccccccccccccccdH
  00227	48 0f af c1	 imul	 rax, rcx
; File C:\Program Files (x86)\Microsoft Visual Studio\2019\Community\VC\Tools\MSVC\14.29.30133\include\xmemory

; 60   :         if (_Count > _Max_possible) {

  0022b	48 b9 66 66 66
	66 66 66 66 06	 mov	 rcx, 461168601842738790	; 0666666666666666H
  00235	48 3b c1	 cmp	 rax, rcx
  00238	0f 87 40 02 00
	00		 ja	 $LN478@get_import

; 61   :             _Throw_bad_array_new_length(); // multiply overflow
; 62   :         }
; 63   :     }
; 64   : 
; 65   :     return _Count * _Ty_size;

  0023e	48 8d 04 80	 lea	 rax, QWORD PTR [rax+rax*4]
  00242	48 8d 1c c5 00
	00 00 00	 lea	 rbx, QWORD PTR [rax*8]

; 228  :         if (_Bytes >= _Big_allocation_threshold) { // boost the alignment of big allocations to help autovectorization

  0024a	48 81 fb 00 10
	00 00		 cmp	 rbx, 4096		; 00001000H
  00251	72 2c		 jb	 SHORT $LN235@get_import

; 129  :     const size_t _Block_size = _Non_user_size + _Bytes;

  00253	48 8d 4b 27	 lea	 rcx, QWORD PTR [rbx+39]

; 130  :     if (_Block_size <= _Bytes) {

  00257	48 3b cb	 cmp	 rcx, rbx
  0025a	0f 86 1e 02 00
	00		 jbe	 $LN478@get_import

; 79   :         return ::operator new(_Bytes);

  00260	e8 00 00 00 00	 call	 ??2@YAPEAX_K@Z		; operator new
  00265	48 8b c8	 mov	 rcx, rax

; 135  :     _STL_VERIFY(_Ptr_container != 0, "invalid argument"); // validate even in release since we're doing p[-1]

  00268	48 85 c0	 test	 rax, rax
  0026b	0f 84 ad 01 00
	00		 je	 $LN244@get_import

; 136  :     void* const _Ptr = reinterpret_cast<void*>((_Ptr_container + _Non_user_size) & ~(_Big_allocation_alignment - 1));

  00271	48 83 c0 27	 add	 rax, 39			; 00000027H
  00275	48 83 e0 e0	 and	 rax, -32		; ffffffffffffffe0H

; 137  :     static_cast<uintptr_t*>(_Ptr)[-1] = _Ptr_container;

  00279	48 89 48 f8	 mov	 QWORD PTR [rax-8], rcx

; 229  :             return _Allocate_manually_vector_aligned<_Traits>(_Bytes);

  0027d	eb 12		 jmp	 SHORT $LN234@get_import
$LN235@get_import:

; 230  :         }
; 231  :     }
; 232  : #endif // defined(_M_IX86) || defined(_M_X64)
; 233  : 
; 234  :     if (_Bytes != 0) {

  0027f	48 85 db	 test	 rbx, rbx
  00282	74 0a		 je	 SHORT $LN236@get_import

; 79   :         return ::operator new(_Bytes);

  00284	48 8b cb	 mov	 rcx, rbx
  00287	e8 00 00 00 00	 call	 ??2@YAPEAX_K@Z		; operator new

; 235  :         return _Traits::_Allocate(_Bytes);

  0028c	eb 03		 jmp	 SHORT $LN234@get_import
$LN236@get_import:

; 236  :     }
; 237  : 
; 238  :     return nullptr;

  0028e	49 8b c4	 mov	 rax, r12
$LN234@get_import:
; File C:\Program Files (x86)\Microsoft Visual Studio\2019\Community\VC\Tools\MSVC\14.29.30133\include\vector

; 1699 :         _Myfirst           = _Newvec;

  00291	49 89 06	 mov	 QWORD PTR [r14], rax

; 1700 :         _Mylast            = _Newvec;

  00294	49 89 46 08	 mov	 QWORD PTR [r14+8], rax

; 1701 :         _Myend             = _Newvec + _Newcapacity;

  00298	48 03 c3	 add	 rax, rbx
  0029b	49 89 46 10	 mov	 QWORD PTR [r14+16], rax

; 551  :             _Tidy_guard<vector> _Guard{this};

  0029f	4c 89 75 af	 mov	 QWORD PTR _Guard$2[rbp-169], r14

; 552  :             _My_data._Mylast = _Ucopy(_Rightfirst, _Rightlast, _My_data._Myfirst);

  002a3	49 8b 1e	 mov	 rbx, QWORD PTR [r14]
; File C:\Program Files (x86)\Microsoft Visual Studio\2019\Community\VC\Tools\MSVC\14.29.30133\include\xmemory

; 1642 :     auto _UFirst      = _Get_unwrapped(_First);

  002a6	49 8b ff	 mov	 rdi, r15

; 1609 :         : _First(_Dest), _Last(_Dest), _Al(_Al_) {}

  002a9	48 89 5d b7	 mov	 QWORD PTR _Backout$3[rbp-169], rbx
  002ad	48 89 5d bf	 mov	 QWORD PTR _Backout$3[rbp-161], rbx
  002b1	4c 89 75 c7	 mov	 QWORD PTR _Backout$3[rbp-153], r14
$LL261@get_import:
  002b5	48 8b d7	 mov	 rdx, rdi
  002b8	48 8b cb	 mov	 rcx, rbx
  002bb	e8 00 00 00 00	 call	 ??0?$basic_string@DU?$char_traits@D@std@@V?$allocator@D@2@@std@@QEAA@AEBV01@@Z ; std::basic_string<char,std::char_traits<char>,std::allocator<char> >::basic_string<char,std::char_traits<char>,std::allocator<char> >
  002c0	48 8b 47 20	 mov	 rax, QWORD PTR [rdi+32]
  002c4	48 89 43 20	 mov	 QWORD PTR [rbx+32], rax

; 1621 :         ++_Last;

  002c8	48 83 c3 28	 add	 rbx, 40			; 00000028H
  002cc	48 89 5d bf	 mov	 QWORD PTR _Backout$3[rbp-161], rbx

; 1658 :     for (; _UFirst != _ULast; ++_UFirst) {

  002d0	48 83 c7 28	 add	 rdi, 40			; 00000028H
  002d4	48 3b fe	 cmp	 rdi, rsi
  002d7	75 dc		 jne	 SHORT $LL261@get_import

; 1615 :         _Destroy_range(_First, _Last, _Al);

  002d9	48 8b d3	 mov	 rdx, rbx
  002dc	48 8b cb	 mov	 rcx, rbx
  002df	e8 00 00 00 00	 call	 ??$_Destroy_range@V?$allocator@UImportFunctionInfo@portable_executable@@@std@@@std@@YAXPEAUImportFunctionInfo@portable_executable@@QEAU12@AEAV?$allocator@UImportFunctionInfo@portable_executable@@@0@@Z ; std::_Destroy_range<std::allocator<portable_executable::ImportFunctionInfo> >
; File C:\Program Files (x86)\Microsoft Visual Studio\2019\Community\VC\Tools\MSVC\14.29.30133\include\vector

; 552  :             _My_data._Mylast = _Ucopy(_Rightfirst, _Rightlast, _My_data._Myfirst);

  002e4	49 89 5e 08	 mov	 QWORD PTR [r14+8], rbx
$LN278@get_import:

; 716  :         ++_Mylast;

  002e8	49 83 c5 38	 add	 r13, 56			; 00000038H
  002ec	4c 89 6d 87	 mov	 QWORD PTR imports$[rbp-161], r13

; 731  :             return _Emplace_back_with_unused_capacity(_STD forward<_Valty>(_Val)...);

  002f0	48 8b 5c 24 20	 mov	 rbx, QWORD PTR current_import_descriptor$1$[rsp]
  002f5	eb 1d		 jmp	 SHORT $LN207@get_import
$LN208@get_import:

; 732  :         }
; 733  : 
; 734  :         _Ty& _Result = *_Emplace_reallocate(_Mylast, _STD forward<_Valty>(_Val)...);

  002f7	4c 8d 45 df	 lea	 r8, QWORD PTR import_info$6[rbp-169]
  002fb	49 8b d5	 mov	 rdx, r13
  002fe	48 8d 4c 24 28	 lea	 rcx, QWORD PTR imports$[rsp]
  00303	e8 00 00 00 00	 call	 ??$_Emplace_reallocate@AEBUImportInfo@portable_executable@@@?$vector@UImportInfo@portable_executable@@V?$allocator@UImportInfo@portable_executable@@@std@@@std@@QEAAPEAUImportInfo@portable_executable@@QEAU23@AEBU23@@Z ; std::vector<portable_executable::ImportInfo,std::allocator<portable_executable::ImportInfo> >::_Emplace_reallocate<portable_executable::ImportInfo const &>
  00308	4c 8b 6d 87	 mov	 r13, QWORD PTR imports$[rbp-161]
  0030c	48 8b 75 07	 mov	 rsi, QWORD PTR import_info$6[rbp-129]
  00310	4c 8b 7d ff	 mov	 r15, QWORD PTR import_info$6[rbp-137]
$LN207@get_import:
; File C:\Users\vin\Downloads\ApexIsAssWithEAC-main\ApexIsAssWithEAC-main\sinmapper\drv_image.cpp

; 129  : 			++current_import_descriptor;

  00314	48 83 c3 14	 add	 rbx, 20
  00318	48 89 5c 24 20	 mov	 QWORD PTR current_import_descriptor$1$[rsp], rbx
; File C:\Program Files (x86)\Microsoft Visual Studio\2019\Community\VC\Tools\MSVC\14.29.30133\include\vector

; 1750 :         if (_Myfirst) { // destroy and deallocate old array

  0031d	4d 85 ff	 test	 r15, r15
  00320	0f 84 ab 00 00
	00		 je	 $LN291@get_import

; 1667 :         _Destroy_range(_First, _Last, _Getal());

  00326	49 8b df	 mov	 rbx, r15
  00329	4c 3b fe	 cmp	 r15, rsi
; File C:\Program Files (x86)\Microsoft Visual Studio\2019\Community\VC\Tools\MSVC\14.29.30133\include\xmemory

; 904  :         for (; _First != _Last; ++_First) {

  0032c	74 54		 je	 SHORT $LN297@get_import
  0032e	66 90		 npad	 2
$LL298@get_import:
; File C:\Program Files (x86)\Microsoft Visual Studio\2019\Community\VC\Tools\MSVC\14.29.30133\include\xstring

; 2286 :         return _BUF_SIZE <= _Myres;

  00330	48 8b 53 18	 mov	 rdx, QWORD PTR [rbx+24]

; 4584 :         if (_Mypair._Myval2._Large_string_engaged()) {

  00334	48 83 fa 10	 cmp	 rdx, 16
  00338	72 30		 jb	 SHORT $LN320@get_import

; 4585 :             const pointer _Ptr = _Mypair._Myval2._Bx._Ptr;

  0033a	48 8b 0b	 mov	 rcx, QWORD PTR [rbx]

; 4586 :             auto& _Al          = _Getal();
; 4587 :             _Destroy_in_place(_Mypair._Myval2._Bx._Ptr);
; 4588 :             _Al.deallocate(_Ptr, _Mypair._Myval2._Myres + 1);

  0033d	48 ff c2	 inc	 rdx
; File C:\Program Files (x86)\Microsoft Visual Studio\2019\Community\VC\Tools\MSVC\14.29.30133\include\xmemory

; 251  :         if (_Bytes >= _Big_allocation_threshold) { // boost the alignment of big allocations to help autovectorization

  00340	48 81 fa 00 10
	00 00		 cmp	 rdx, 4096		; 00001000H
  00347	72 1c		 jb	 SHORT $LN330@get_import

; 147  :     _Bytes += _Non_user_size;

  00349	48 83 c2 27	 add	 rdx, 39			; 00000027H

; 148  : 
; 149  :     const uintptr_t* const _Ptr_user = reinterpret_cast<uintptr_t*>(_Ptr);
; 150  :     const uintptr_t _Ptr_container   = _Ptr_user[-1];

  0034d	4c 8b 41 f8	 mov	 r8, QWORD PTR [rcx-8]

; 151  : 
; 152  :     // If the following asserts, it likely means that we are performing
; 153  :     // an aligned delete on memory coming from an unaligned allocation.
; 154  :     _STL_ASSERT(_Ptr_user[-2] == _Big_allocation_sentinel, "invalid argument");
; 155  : 
; 156  :     // Extra paranoia on aligned allocation/deallocation; ensure _Ptr_container is
; 157  :     // in range [_Min_back_shift, _Non_user_size]
; 158  : #ifdef _DEBUG
; 159  :     constexpr uintptr_t _Min_back_shift = 2 * sizeof(void*);
; 160  : #else // ^^^ _DEBUG ^^^ // vvv !_DEBUG vvv
; 161  :     constexpr uintptr_t _Min_back_shift = sizeof(void*);
; 162  : #endif // _DEBUG
; 163  :     const uintptr_t _Back_shift = reinterpret_cast<uintptr_t>(_Ptr) - _Ptr_container;

  00351	49 2b c8	 sub	 rcx, r8

; 164  :     _STL_VERIFY(_Back_shift >= _Min_back_shift && _Back_shift <= _Non_user_size, "invalid argument");

  00354	48 8d 41 f8	 lea	 rax, QWORD PTR [rcx-8]
  00358	48 83 f8 1f	 cmp	 rax, 31
  0035c	0f 87 c3 00 00
	00		 ja	 $LN379@get_import

; 165  :     _Ptr = reinterpret_cast<void*>(_Ptr_container);

  00362	49 8b c8	 mov	 rcx, r8
$LN330@get_import:

; 255  :         ::operator delete(_Ptr, _Bytes);

  00365	e8 00 00 00 00	 call	 ??3@YAXPEAX_K@Z		; operator delete
$LN320@get_import:
; File C:\Program Files (x86)\Microsoft Visual Studio\2019\Community\VC\Tools\MSVC\14.29.30133\include\xstring

; 4599 :             _Mypair._Myval2._Mysize = 0;

  0036a	4c 89 63 10	 mov	 QWORD PTR [rbx+16], r12

; 4600 :             _Mypair._Myval2._Myres  = _BUF_SIZE - 1;

  0036e	48 c7 43 18 0f
	00 00 00	 mov	 QWORD PTR [rbx+24], 15

; 4601 :             // the _Traits::assign is last so the codegen doesn't think the char write can alias this
; 4602 :             _Traits::assign(_Mypair._Myval2._Bx._Buf[0], _Elem());

  00376	c6 03 00	 mov	 BYTE PTR [rbx], 0
; File C:\Program Files (x86)\Microsoft Visual Studio\2019\Community\VC\Tools\MSVC\14.29.30133\include\xmemory

; 904  :         for (; _First != _Last; ++_First) {

  00379	48 83 c3 28	 add	 rbx, 40			; 00000028H
  0037d	48 3b de	 cmp	 rbx, rsi
  00380	75 ae		 jne	 SHORT $LL298@get_import
$LN297@get_import:
; File C:\Program Files (x86)\Microsoft Visual Studio\2019\Community\VC\Tools\MSVC\14.29.30133\include\vector

; 1752 :             _Getal().deallocate(_Myfirst, static_cast<size_type>(_Myend - _Myfirst));

  00382	48 8b 45 0f	 mov	 rax, QWORD PTR import_info$6[rbp-121]
  00386	49 2b c7	 sub	 rax, r15
  00389	48 c1 f8 03	 sar	 rax, 3
  0038d	48 b9 cd cc cc
	cc cc cc cc cc	 mov	 rcx, -3689348814741910323 ; cccccccccccccccdH
  00397	48 0f af c1	 imul	 rax, rcx
; File C:\Program Files (x86)\Microsoft Visual Studio\2019\Community\VC\Tools\MSVC\14.29.30133\include\xmemory

; 797  :         _Deallocate<_New_alignof<_Ty>>(_Ptr, sizeof(_Ty) * _Count);

  0039b	48 8d 14 80	 lea	 rdx, QWORD PTR [rax+rax*4]
  0039f	48 c1 e2 03	 shl	 rdx, 3
  003a3	49 8b c7	 mov	 rax, r15

; 251  :         if (_Bytes >= _Big_allocation_threshold) { // boost the alignment of big allocations to help autovectorization

  003a6	48 81 fa 00 10
	00 00		 cmp	 rdx, 4096		; 00001000H
  003ad	72 15		 jb	 SHORT $LN355@get_import

; 147  :     _Bytes += _Non_user_size;

  003af	48 83 c2 27	 add	 rdx, 39			; 00000027H

; 148  : 
; 149  :     const uintptr_t* const _Ptr_user = reinterpret_cast<uintptr_t*>(_Ptr);
; 150  :     const uintptr_t _Ptr_container   = _Ptr_user[-1];

  003b3	4d 8b 7f f8	 mov	 r15, QWORD PTR [r15-8]
  003b7	49 2b c7	 sub	 rax, r15

; 164  :     _STL_VERIFY(_Back_shift >= _Min_back_shift && _Back_shift <= _Non_user_size, "invalid argument");

  003ba	48 83 c0 f8	 add	 rax, -8
  003be	48 83 f8 1f	 cmp	 rax, 31
  003c2	77 61		 ja	 SHORT $LN379@get_import
$LN355@get_import:

; 255  :         ::operator delete(_Ptr, _Bytes);

  003c4	49 8b cf	 mov	 rcx, r15
  003c7	e8 00 00 00 00	 call	 ??3@YAXPEAX_K@Z		; operator delete
  003cc	48 8b 5c 24 20	 mov	 rbx, QWORD PTR current_import_descriptor$1$[rsp]
$LN291@get_import:
; File C:\Program Files (x86)\Microsoft Visual Studio\2019\Community\VC\Tools\MSVC\14.29.30133\include\xstring

; 4584 :         if (_Mypair._Myval2._Large_string_engaged()) {

  003d1	48 8b 55 f7	 mov	 rdx, QWORD PTR import_info$6[rbp-145]
  003d5	48 83 fa 10	 cmp	 rdx, 16
  003d9	72 2d		 jb	 SHORT $LN372@get_import

; 4586 :             auto& _Al          = _Getal();
; 4587 :             _Destroy_in_place(_Mypair._Myval2._Bx._Ptr);
; 4588 :             _Al.deallocate(_Ptr, _Mypair._Myval2._Myres + 1);

  003db	48 ff c2	 inc	 rdx
; File C:\Program Files (x86)\Microsoft Visual Studio\2019\Community\VC\Tools\MSVC\14.29.30133\include\xmemory

; 797  :         _Deallocate<_New_alignof<_Ty>>(_Ptr, sizeof(_Ty) * _Count);

  003de	48 8b 4d df	 mov	 rcx, QWORD PTR import_info$6[rbp-169]
  003e2	48 8b c1	 mov	 rax, rcx

; 251  :         if (_Bytes >= _Big_allocation_threshold) { // boost the alignment of big allocations to help autovectorization

  003e5	48 81 fa 00 10
	00 00		 cmp	 rdx, 4096		; 00001000H
  003ec	72 15		 jb	 SHORT $LN382@get_import

; 147  :     _Bytes += _Non_user_size;

  003ee	48 83 c2 27	 add	 rdx, 39			; 00000027H

; 148  : 
; 149  :     const uintptr_t* const _Ptr_user = reinterpret_cast<uintptr_t*>(_Ptr);
; 150  :     const uintptr_t _Ptr_container   = _Ptr_user[-1];

  003f2	48 8b 49 f8	 mov	 rcx, QWORD PTR [rcx-8]
  003f6	48 2b c1	 sub	 rax, rcx

; 164  :     _STL_VERIFY(_Back_shift >= _Min_back_shift && _Back_shift <= _Non_user_size, "invalid argument");

  003f9	48 83 c0 f8	 add	 rax, -8
  003fd	48 83 f8 1f	 cmp	 rax, 31
  00401	77 22		 ja	 SHORT $LN379@get_import
$LN382@get_import:

; 255  :         ::operator delete(_Ptr, _Bytes);

  00403	e8 00 00 00 00	 call	 ??3@YAXPEAX_K@Z		; operator delete
$LN372@get_import:
; File C:\Users\vin\Downloads\ApexIsAssWithEAC-main\ApexIsAssWithEAC-main\sinmapper\drv_image.cpp

; 104  : 		while (current_import_descriptor->FirstThunk)

  00408	83 7b 10 00	 cmp	 DWORD PTR [rbx+16], 0
  0040c	74 1e		 je	 SHORT $LN499@get_import
  0040e	4c 8b 7d 97	 mov	 r15, QWORD PTR image_base$GSCopy$1$[rbp-169]
  00412	e9 79 fc ff ff	 jmp	 $LL2@get_import
$LN196@get_import:
; File C:\Program Files (x86)\Microsoft Visual Studio\2019\Community\VC\Tools\MSVC\14.29.30133\include\xmemory

; 164  :     _STL_VERIFY(_Back_shift >= _Min_back_shift && _Back_shift <= _Non_user_size, "invalid argument");

  00417	ff 15 00 00 00
	00		 call	 QWORD PTR __imp__invalid_parameter_noinfo_noreturn
  0041d	90		 npad	 1
$LN244@get_import:

; 135  :     _STL_VERIFY(_Ptr_container != 0, "invalid argument"); // validate even in release since we're doing p[-1]

  0041e	ff 15 00 00 00
	00		 call	 QWORD PTR __imp__invalid_parameter_noinfo_noreturn
  00424	90		 npad	 1
$LN379@get_import:

; 164  :     _STL_VERIFY(_Back_shift >= _Min_back_shift && _Back_shift <= _Non_user_size, "invalid argument");

  00425	ff 15 00 00 00
	00		 call	 QWORD PTR __imp__invalid_parameter_noinfo_noreturn
  0042b	cc		 int	 3
$LN499@get_import:
; File C:\Users\vin\Downloads\ApexIsAssWithEAC-main\ApexIsAssWithEAC-main\sinmapper\drv_image.cpp

; 104  : 		while (current_import_descriptor->FirstThunk)

  0042c	48 8b 55 9f	 mov	 rdx, QWORD PTR __$ReturnUdt$GSCopy$1$[rbp-169]
$LN495@get_import:
; File C:\Program Files (x86)\Microsoft Visual Studio\2019\Community\VC\Tools\MSVC\14.29.30133\include\vector

; 393  :         : _Myfirst(_First), _Mylast(_Last), _Myend(_End) {}

  00430	48 8b 4c 24 28	 mov	 rcx, QWORD PTR imports$[rsp]
  00435	48 89 0a	 mov	 QWORD PTR [rdx], rcx
  00438	4c 89 6a 08	 mov	 QWORD PTR [rdx+8], r13
  0043c	48 8b 45 8f	 mov	 rax, QWORD PTR imports$[rbp-153]
  00440	48 89 42 10	 mov	 QWORD PTR [rdx+16], rax
; File C:\Users\vin\Downloads\ApexIsAssWithEAC-main\ApexIsAssWithEAC-main\sinmapper\drv_image.cpp

; 132  : 		return imports;

  00444	eb 0e		 jmp	 SHORT $LN501@get_import
$LN494@get_import:
; File C:\Program Files (x86)\Microsoft Visual Studio\2019\Community\VC\Tools\MSVC\14.29.30133\include\vector

; 390  :     _CONSTEXPR20_CONTAINER _Vector_val() noexcept : _Myfirst(), _Mylast(), _Myend() {}

  00446	45 33 e4	 xor	 r12d, r12d
  00449	4c 89 21	 mov	 QWORD PTR [rcx], r12
  0044c	4c 89 61 08	 mov	 QWORD PTR [rcx+8], r12
  00450	4c 89 61 10	 mov	 QWORD PTR [rcx+16], r12
$LN501@get_import:
; File C:\Users\vin\Downloads\ApexIsAssWithEAC-main\ApexIsAssWithEAC-main\sinmapper\drv_image.cpp

; 133  : 	}

  00454	48 8b c2	 mov	 rax, rdx
  00457	48 8b 4d 17	 mov	 rcx, QWORD PTR __$ArrayPad$[rbp-169]
  0045b	48 33 cc	 xor	 rcx, rsp
  0045e	e8 00 00 00 00	 call	 __security_check_cookie
  00463	48 8b 9c 24 20
	01 00 00	 mov	 rbx, QWORD PTR [rsp+288]
  0046b	48 81 c4 d0 00
	00 00		 add	 rsp, 208		; 000000d0H
  00472	41 5f		 pop	 r15
  00474	41 5e		 pop	 r14
  00476	41 5d		 pop	 r13
  00478	41 5c		 pop	 r12
  0047a	5f		 pop	 rdi
  0047b	5e		 pop	 rsi
  0047c	5d		 pop	 rbp
  0047d	c3		 ret	 0
$LN478@get_import:
; File C:\Program Files (x86)\Microsoft Visual Studio\2019\Community\VC\Tools\MSVC\14.29.30133\include\xmemory

; 131  :         _Throw_bad_array_new_length(); // add overflow

  0047e	e8 00 00 00 00	 call	 ?_Throw_bad_array_new_length@std@@YAXXZ ; std::_Throw_bad_array_new_length
  00483	90		 npad	 1
$LN500@get_import:
?get_imports@portable_executable@@YA?AV?$vector@UImportInfo@portable_executable@@V?$allocator@UImportInfo@portable_executable@@@std@@@std@@PEAX@Z ENDP ; portable_executable::get_imports
_TEXT	ENDS
text$x	SEGMENT
current_import_descriptor$1$ = 32
__$ReturnUdt$GSCopy$ = 32
imports$ = 40
image_base$GSCopy$1$ = 64
__$ReturnUdt$GSCopy$1$ = 72
$T1 = 80
_Guard$2 = 88
_Backout$3 = 96
import_function_data$4 = 96
$T5 = 96
import_info$6 = 136
__$ArrayPad$ = 192
__$ReturnUdt$ = 272
image_base$ = 280
?dtor$1@?0??get_imports@portable_executable@@YA?AV?$vector@UImportInfo@portable_executable@@V?$allocator@UImportInfo@portable_executable@@@std@@@std@@PEAX@Z@4HA PROC ; `portable_executable::get_imports'::`1'::dtor$1
  00000	48 8d 8a 28 00
	00 00		 lea	 rcx, QWORD PTR imports$[rdx]
  00007	e9 00 00 00 00	 jmp	 ??1?$vector@UImportInfo@portable_executable@@V?$allocator@UImportInfo@portable_executable@@@std@@@std@@QEAA@XZ ; std::vector<portable_executable::ImportInfo,std::allocator<portable_executable::ImportInfo> >::~vector<portable_executable::ImportInfo,std::allocator<portable_executable::ImportInfo> >
?dtor$1@?0??get_imports@portable_executable@@YA?AV?$vector@UImportInfo@portable_executable@@V?$allocator@UImportInfo@portable_executable@@@std@@@std@@PEAX@Z@4HA ENDP ; `portable_executable::get_imports'::`1'::dtor$1
current_import_descriptor$1$ = 32
__$ReturnUdt$GSCopy$ = 32
imports$ = 40
image_base$GSCopy$1$ = 64
__$ReturnUdt$GSCopy$1$ = 72
$T1 = 80
_Guard$2 = 88
_Backout$3 = 96
import_function_data$4 = 96
$T5 = 96
import_info$6 = 136
__$ArrayPad$ = 192
__$ReturnUdt$ = 272
image_base$ = 280
?dtor$2@?0??get_imports@portable_executable@@YA?AV?$vector@UImportInfo@portable_executable@@V?$allocator@UImportInfo@portable_executable@@@std@@@std@@PEAX@Z@4HA PROC ; `portable_executable::get_imports'::`1'::dtor$2
  0000c	48 8d 8a 88 00
	00 00		 lea	 rcx, QWORD PTR import_info$6[rdx]
  00013	e9 00 00 00 00	 jmp	 ??1ImportInfo@portable_executable@@QEAA@XZ
?dtor$2@?0??get_imports@portable_executable@@YA?AV?$vector@UImportInfo@portable_executable@@V?$allocator@UImportInfo@portable_executable@@@std@@@std@@PEAX@Z@4HA ENDP ; `portable_executable::get_imports'::`1'::dtor$2
current_import_descriptor$1$ = 32
__$ReturnUdt$GSCopy$ = 32
imports$ = 40
image_base$GSCopy$1$ = 64
__$ReturnUdt$GSCopy$1$ = 72
$T1 = 80
_Guard$2 = 88
_Backout$3 = 96
import_function_data$4 = 96
$T5 = 96
import_info$6 = 136
__$ArrayPad$ = 192
__$ReturnUdt$ = 272
image_base$ = 280
?dtor$4@?0??get_imports@portable_executable@@YA?AV?$vector@UImportInfo@portable_executable@@V?$allocator@UImportInfo@portable_executable@@@std@@@std@@PEAX@Z@4HA PROC ; `portable_executable::get_imports'::`1'::dtor$4
  00018	48 8d 8a 60 00
	00 00		 lea	 rcx, QWORD PTR import_function_data$4[rdx]
  0001f	e9 00 00 00 00	 jmp	 ??1ImportFunctionInfo@portable_executable@@QEAA@XZ
?dtor$4@?0??get_imports@portable_executable@@YA?AV?$vector@UImportInfo@portable_executable@@V?$allocator@UImportInfo@portable_executable@@@std@@@std@@PEAX@Z@4HA ENDP ; `portable_executable::get_imports'::`1'::dtor$4
current_import_descriptor$1$ = 32
__$ReturnUdt$GSCopy$ = 32
imports$ = 40
image_base$GSCopy$1$ = 64
__$ReturnUdt$GSCopy$1$ = 72
$T1 = 80
_Guard$2 = 88
_Backout$3 = 96
import_function_data$4 = 96
$T5 = 96
import_info$6 = 136
__$ArrayPad$ = 192
__$ReturnUdt$ = 272
image_base$ = 280
?dtor$19@?0??get_imports@portable_executable@@YA?AV?$vector@UImportInfo@portable_executable@@V?$allocator@UImportInfo@portable_executable@@@std@@@std@@PEAX@Z@4HA PROC ; `portable_executable::get_imports'::`1'::dtor$19
  00024	48 8b 8a 50 00
	00 00		 mov	 rcx, QWORD PTR $T1[rdx]
  0002b	e9 00 00 00 00	 jmp	 ??1?$basic_string@DU?$char_traits@D@std@@V?$allocator@D@2@@std@@QEAA@XZ ; std::basic_string<char,std::char_traits<char>,std::allocator<char> >::~basic_string<char,std::char_traits<char>,std::allocator<char> >
?dtor$19@?0??get_imports@portable_executable@@YA?AV?$vector@UImportInfo@portable_executable@@V?$allocator@UImportInfo@portable_executable@@@std@@@std@@PEAX@Z@4HA ENDP ; `portable_executable::get_imports'::`1'::dtor$19
current_import_descriptor$1$ = 32
__$ReturnUdt$GSCopy$ = 32
imports$ = 40
image_base$GSCopy$1$ = 64
__$ReturnUdt$GSCopy$1$ = 72
$T1 = 80
_Guard$2 = 88
_Backout$3 = 96
import_function_data$4 = 96
$T5 = 96
import_info$6 = 136
__$ArrayPad$ = 192
__$ReturnUdt$ = 272
image_base$ = 280
?dtor$21@?0??get_imports@portable_executable@@YA?AV?$vector@UImportInfo@portable_executable@@V?$allocator@UImportInfo@portable_executable@@@std@@@std@@PEAX@Z@4HA PROC ; `portable_executable::get_imports'::`1'::dtor$21
  00030	48 8d 8a 58 00
	00 00		 lea	 rcx, QWORD PTR _Guard$2[rdx]
  00037	e9 00 00 00 00	 jmp	 ??1?$_Tidy_guard@V?$vector@UImportFunctionInfo@portable_executable@@V?$allocator@UImportFunctionInfo@portable_executable@@@std@@@std@@@std@@QEAA@XZ ; std::_Tidy_guard<std::vector<portable_executable::ImportFunctionInfo,std::allocator<portable_executable::ImportFunctionInfo> > >::~_Tidy_guard<std::vector<portable_executable::ImportFunctionInfo,std::allocator<portable_executable::ImportFunctionInfo> > >
?dtor$21@?0??get_imports@portable_executable@@YA?AV?$vector@UImportInfo@portable_executable@@V?$allocator@UImportInfo@portable_executable@@@std@@@std@@PEAX@Z@4HA ENDP ; `portable_executable::get_imports'::`1'::dtor$21
current_import_descriptor$1$ = 32
__$ReturnUdt$GSCopy$ = 32
imports$ = 40
image_base$GSCopy$1$ = 64
__$ReturnUdt$GSCopy$1$ = 72
$T1 = 80
_Guard$2 = 88
_Backout$3 = 96
import_function_data$4 = 96
$T5 = 96
import_info$6 = 136
__$ArrayPad$ = 192
__$ReturnUdt$ = 272
image_base$ = 280
?dtor$22@?0??get_imports@portable_executable@@YA?AV?$vector@UImportInfo@portable_executable@@V?$allocator@UImportInfo@portable_executable@@@std@@@std@@PEAX@Z@4HA PROC ; `portable_executable::get_imports'::`1'::dtor$22
  0003c	48 8d 8a 60 00
	00 00		 lea	 rcx, QWORD PTR _Backout$3[rdx]
  00043	e9 00 00 00 00	 jmp	 ??1?$_Uninitialized_backout_al@V?$allocator@UImportFunctionInfo@portable_executable@@@std@@@std@@QEAA@XZ ; std::_Uninitialized_backout_al<std::allocator<portable_executable::ImportFunctionInfo> >::~_Uninitialized_backout_al<std::allocator<portable_executable::ImportFunctionInfo> >
?dtor$22@?0??get_imports@portable_executable@@YA?AV?$vector@UImportInfo@portable_executable@@V?$allocator@UImportInfo@portable_executable@@@std@@@std@@PEAX@Z@4HA ENDP ; `portable_executable::get_imports'::`1'::dtor$22
text$x	ENDS
; Function compile flags: /Ogtpy
text$x	SEGMENT
current_import_descriptor$1$ = 32
__$ReturnUdt$GSCopy$ = 32
imports$ = 40
image_base$GSCopy$1$ = 64
__$ReturnUdt$GSCopy$1$ = 72
$T1 = 80
_Guard$2 = 88
_Backout$3 = 96
import_function_data$4 = 96
$T5 = 96
import_info$6 = 136
__$ArrayPad$ = 192
__$ReturnUdt$ = 272
image_base$ = 280
?dtor$1@?0??get_imports@portable_executable@@YA?AV?$vector@UImportInfo@portable_executable@@V?$allocator@UImportInfo@portable_executable@@@std@@@std@@PEAX@Z@4HA PROC ; `portable_executable::get_imports'::`1'::dtor$1
  00000	48 8d 8a 28 00
	00 00		 lea	 rcx, QWORD PTR imports$[rdx]
  00007	e9 00 00 00 00	 jmp	 ??1?$vector@UImportInfo@portable_executable@@V?$allocator@UImportInfo@portable_executable@@@std@@@std@@QEAA@XZ ; std::vector<portable_executable::ImportInfo,std::allocator<portable_executable::ImportInfo> >::~vector<portable_executable::ImportInfo,std::allocator<portable_executable::ImportInfo> >
?dtor$1@?0??get_imports@portable_executable@@YA?AV?$vector@UImportInfo@portable_executable@@V?$allocator@UImportInfo@portable_executable@@@std@@@std@@PEAX@Z@4HA ENDP ; `portable_executable::get_imports'::`1'::dtor$1
text$x	ENDS
; Function compile flags: /Ogtpy
text$x	SEGMENT
current_import_descriptor$1$ = 32
__$ReturnUdt$GSCopy$ = 32
imports$ = 40
image_base$GSCopy$1$ = 64
__$ReturnUdt$GSCopy$1$ = 72
$T1 = 80
_Guard$2 = 88
_Backout$3 = 96
import_function_data$4 = 96
$T5 = 96
import_info$6 = 136
__$ArrayPad$ = 192
__$ReturnUdt$ = 272
image_base$ = 280
?dtor$2@?0??get_imports@portable_executable@@YA?AV?$vector@UImportInfo@portable_executable@@V?$allocator@UImportInfo@portable_executable@@@std@@@std@@PEAX@Z@4HA PROC ; `portable_executable::get_imports'::`1'::dtor$2
  0000c	48 8d 8a 88 00
	00 00		 lea	 rcx, QWORD PTR import_info$6[rdx]
  00013	e9 00 00 00 00	 jmp	 ??1ImportInfo@portable_executable@@QEAA@XZ
?dtor$2@?0??get_imports@portable_executable@@YA?AV?$vector@UImportInfo@portable_executable@@V?$allocator@UImportInfo@portable_executable@@@std@@@std@@PEAX@Z@4HA ENDP ; `portable_executable::get_imports'::`1'::dtor$2
text$x	ENDS
; Function compile flags: /Ogtpy
text$x	SEGMENT
current_import_descriptor$1$ = 32
__$ReturnUdt$GSCopy$ = 32
imports$ = 40
image_base$GSCopy$1$ = 64
__$ReturnUdt$GSCopy$1$ = 72
$T1 = 80
_Guard$2 = 88
_Backout$3 = 96
import_function_data$4 = 96
$T5 = 96
import_info$6 = 136
__$ArrayPad$ = 192
__$ReturnUdt$ = 272
image_base$ = 280
?dtor$4@?0??get_imports@portable_executable@@YA?AV?$vector@UImportInfo@portable_executable@@V?$allocator@UImportInfo@portable_executable@@@std@@@std@@PEAX@Z@4HA PROC ; `portable_executable::get_imports'::`1'::dtor$4
  00018	48 8d 8a 60 00
	00 00		 lea	 rcx, QWORD PTR import_function_data$4[rdx]
  0001f	e9 00 00 00 00	 jmp	 ??1ImportFunctionInfo@portable_executable@@QEAA@XZ
?dtor$4@?0??get_imports@portable_executable@@YA?AV?$vector@UImportInfo@portable_executable@@V?$allocator@UImportInfo@portable_executable@@@std@@@std@@PEAX@Z@4HA ENDP ; `portable_executable::get_imports'::`1'::dtor$4
text$x	ENDS
; Function compile flags: /Ogtpy
text$x	SEGMENT
current_import_descriptor$1$ = 32
__$ReturnUdt$GSCopy$ = 32
imports$ = 40
image_base$GSCopy$1$ = 64
__$ReturnUdt$GSCopy$1$ = 72
$T1 = 80
_Guard$2 = 88
_Backout$3 = 96
import_function_data$4 = 96
$T5 = 96
import_info$6 = 136
__$ArrayPad$ = 192
__$ReturnUdt$ = 272
image_base$ = 280
?dtor$19@?0??get_imports@portable_executable@@YA?AV?$vector@UImportInfo@portable_executable@@V?$allocator@UImportInfo@portable_executable@@@std@@@std@@PEAX@Z@4HA PROC ; `portable_executable::get_imports'::`1'::dtor$19
  00024	48 8b 8a 50 00
	00 00		 mov	 rcx, QWORD PTR $T1[rdx]
  0002b	e9 00 00 00 00	 jmp	 ??1?$basic_string@DU?$char_traits@D@std@@V?$allocator@D@2@@std@@QEAA@XZ ; std::basic_string<char,std::char_traits<char>,std::allocator<char> >::~basic_string<char,std::char_traits<char>,std::allocator<char> >
?dtor$19@?0??get_imports@portable_executable@@YA?AV?$vector@UImportInfo@portable_executable@@V?$allocator@UImportInfo@portable_executable@@@std@@@std@@PEAX@Z@4HA ENDP ; `portable_executable::get_imports'::`1'::dtor$19
text$x	ENDS
; Function compile flags: /Ogtpy
text$x	SEGMENT
current_import_descriptor$1$ = 32
__$ReturnUdt$GSCopy$ = 32
imports$ = 40
image_base$GSCopy$1$ = 64
__$ReturnUdt$GSCopy$1$ = 72
$T1 = 80
_Guard$2 = 88
_Backout$3 = 96
import_function_data$4 = 96
$T5 = 96
import_info$6 = 136
__$ArrayPad$ = 192
__$ReturnUdt$ = 272
image_base$ = 280
?dtor$21@?0??get_imports@portable_executable@@YA?AV?$vector@UImportInfo@portable_executable@@V?$allocator@UImportInfo@portable_executable@@@std@@@std@@PEAX@Z@4HA PROC ; `portable_executable::get_imports'::`1'::dtor$21
  00030	48 8d 8a 58 00
	00 00		 lea	 rcx, QWORD PTR _Guard$2[rdx]
  00037	e9 00 00 00 00	 jmp	 ??1?$_Tidy_guard@V?$vector@UImportFunctionInfo@portable_executable@@V?$allocator@UImportFunctionInfo@portable_executable@@@std@@@std@@@std@@QEAA@XZ ; std::_Tidy_guard<std::vector<portable_executable::ImportFunctionInfo,std::allocator<portable_executable::ImportFunctionInfo> > >::~_Tidy_guard<std::vector<portable_executable::ImportFunctionInfo,std::allocator<portable_executable::ImportFunctionInfo> > >
?dtor$21@?0??get_imports@portable_executable@@YA?AV?$vector@UImportInfo@portable_executable@@V?$allocator@UImportInfo@portable_executable@@@std@@@std@@PEAX@Z@4HA ENDP ; `portable_executable::get_imports'::`1'::dtor$21
text$x	ENDS
; Function compile flags: /Ogtpy
text$x	SEGMENT
current_import_descriptor$1$ = 32
__$ReturnUdt$GSCopy$ = 32
imports$ = 40
image_base$GSCopy$1$ = 64
__$ReturnUdt$GSCopy$1$ = 72
$T1 = 80
_Guard$2 = 88
_Backout$3 = 96
import_function_data$4 = 96
$T5 = 96
import_info$6 = 136
__$ArrayPad$ = 192
__$ReturnUdt$ = 272
image_base$ = 280
?dtor$22@?0??get_imports@portable_executable@@YA?AV?$vector@UImportInfo@portable_executable@@V?$allocator@UImportInfo@portable_executable@@@std@@@std@@PEAX@Z@4HA PROC ; `portable_executable::get_imports'::`1'::dtor$22
  0003c	48 8d 8a 60 00
	00 00		 lea	 rcx, QWORD PTR _Backout$3[rdx]
  00043	e9 00 00 00 00	 jmp	 ??1?$_Uninitialized_backout_al@V?$allocator@UImportFunctionInfo@portable_executable@@@std@@@std@@QEAA@XZ ; std::_Uninitialized_backout_al<std::allocator<portable_executable::ImportFunctionInfo> >::~_Uninitialized_backout_al<std::allocator<portable_executable::ImportFunctionInfo> >
?dtor$22@?0??get_imports@portable_executable@@YA?AV?$vector@UImportInfo@portable_executable@@V?$allocator@UImportInfo@portable_executable@@@std@@@std@@PEAX@Z@4HA ENDP ; `portable_executable::get_imports'::`1'::dtor$22
text$x	ENDS
; Function compile flags: /Ogtpy
; File C:\Users\vin\Downloads\ApexIsAssWithEAC-main\ApexIsAssWithEAC-main\sinmapper\util.hpp
; File C:\Program Files (x86)\Microsoft Visual Studio\2019\Community\VC\Tools\MSVC\14.29.30133\include\xstring
; File C:\Users\vin\Downloads\ApexIsAssWithEAC-main\ApexIsAssWithEAC-main\sinmapper\util.hpp
; File C:\Program Files (x86)\Microsoft Visual Studio\2019\Community\VC\Tools\MSVC\14.29.30133\include\xstring
; File C:\Users\vin\Downloads\ApexIsAssWithEAC-main\ApexIsAssWithEAC-main\sinmapper\util.hpp
; File C:\Program Files (x86)\Microsoft Visual Studio\2019\Community\VC\Tools\MSVC\14.29.30133\include\xstring
; File C:\Program Files (x86)\Microsoft Visual Studio\2019\Community\VC\Tools\MSVC\14.29.30133\include\xmemory
; File C:\Program Files (x86)\Microsoft Visual Studio\2019\Community\VC\Tools\MSVC\14.29.30133\include\xstring
; File C:\Users\vin\Downloads\ApexIsAssWithEAC-main\ApexIsAssWithEAC-main\sinmapper\util.hpp
; File C:\Program Files (x86)\Microsoft Visual Studio\2019\Community\VC\Tools\MSVC\14.29.30133\include\xstring
; File C:\Program Files (x86)\Microsoft Visual Studio\2019\Community\VC\Tools\MSVC\14.29.30133\include\xmemory
; File C:\Users\vin\Downloads\ApexIsAssWithEAC-main\ApexIsAssWithEAC-main\sinmapper\util.hpp
; File C:\Program Files (x86)\Microsoft Visual Studio\2019\Community\VC\Tools\MSVC\14.29.30133\include\xstring
; File C:\Program Files (x86)\Microsoft Visual Studio\2019\Community\VC\Tools\MSVC\14.29.30133\include\xmemory
; File C:\Users\vin\Downloads\ApexIsAssWithEAC-main\ApexIsAssWithEAC-main\sinmapper\util.hpp
; File C:\Program Files (x86)\Microsoft Visual Studio\2019\Community\VC\Tools\MSVC\14.29.30133\include\xstring
; File C:\Program Files (x86)\Microsoft Visual Studio\2019\Community\VC\Tools\MSVC\14.29.30133\include\xmemory
; File C:\Users\vin\Downloads\ApexIsAssWithEAC-main\ApexIsAssWithEAC-main\sinmapper\util.hpp
; File C:\Program Files (x86)\Microsoft Visual Studio\2019\Community\VC\Tools\MSVC\14.29.30133\include\xstring
; File C:\Program Files (x86)\Microsoft Visual Studio\2019\Community\VC\Tools\MSVC\14.29.30133\include\xmemory
; File C:\Program Files (x86)\Microsoft Visual Studio\2019\Community\VC\Tools\MSVC\14.29.30133\include\xstring
; File C:\Program Files (x86)\Microsoft Visual Studio\2019\Community\VC\Tools\MSVC\14.29.30133\include\xmemory
; File C:\Users\vin\Downloads\ApexIsAssWithEAC-main\ApexIsAssWithEAC-main\sinmapper\util.hpp
; File C:\Program Files (x86)\Microsoft Visual Studio\2019\Community\VC\Tools\MSVC\14.29.30133\include\xmemory
; File C:\Users\vin\Downloads\ApexIsAssWithEAC-main\ApexIsAssWithEAC-main\sinmapper\util.hpp
_TEXT	SEGMENT
buffer_size$ = 48
module_name$GSCopy$1$ = 56
full_path$1 = 64
$T2 = 96
current_module_name$3 = 128
__$ArrayPad$ = 160
module_name$ = 224
export_name$ = 232
rva$dead$ = 240
?get_kernel_export@util@@YAPEAXPEBD0_N@Z PROC		; util::get_kernel_export

; 66   : 	{

  00000	48 89 5c 24 10	 mov	 QWORD PTR [rsp+16], rbx
  00005	48 89 74 24 18	 mov	 QWORD PTR [rsp+24], rsi
  0000a	48 89 7c 24 20	 mov	 QWORD PTR [rsp+32], rdi
  0000f	55		 push	 rbp
  00010	41 54		 push	 r12
  00012	41 55		 push	 r13
  00014	41 56		 push	 r14
  00016	41 57		 push	 r15
  00018	48 8d 6c 24 c9	 lea	 rbp, QWORD PTR [rsp-55]
  0001d	48 81 ec b0 00
	00 00		 sub	 rsp, 176		; 000000b0H
  00024	48 8b 05 00 00
	00 00		 mov	 rax, QWORD PTR __security_cookie
  0002b	48 33 c4	 xor	 rax, rsp
  0002e	48 89 45 27	 mov	 QWORD PTR __$ArrayPad$[rbp-121], rax
  00032	4c 8b ea	 mov	 r13, rdx
  00035	48 8b f9	 mov	 rdi, rcx
  00038	48 89 4d bf	 mov	 QWORD PTR module_name$GSCopy$1$[rbp-121], rcx

; 67   : 		void* buffer = nullptr;

  0003c	45 33 f6	 xor	 r14d, r14d
  0003f	45 8b fe	 mov	 r15d, r14d

; 68   : 		DWORD buffer_size = NULL;

  00042	44 89 75 b7	 mov	 DWORD PTR buffer_size$[rbp-121], r14d

; 69   : 
; 70   : 		NTSTATUS status = NtQuerySystemInformation(

  00046	4c 8d 4d b7	 lea	 r9, QWORD PTR buffer_size$[rbp-121]
  0004a	45 33 c0	 xor	 r8d, r8d
  0004d	33 d2		 xor	 edx, edx
  0004f	8d 4a 0b	 lea	 ecx, QWORD PTR [rdx+11]
  00052	ff 15 00 00 00
	00		 call	 QWORD PTR __imp_NtQuerySystemInformation

; 71   : 			static_cast<SYSTEM_INFORMATION_CLASS>(SystemModuleInformation),
; 72   : 			buffer,
; 73   : 			buffer_size,
; 74   : 			&buffer_size
; 75   : 		);
; 76   : 
; 77   : 		while (status == STATUS_INFO_LENGTH_MISMATCH)

  00058	3d 04 00 00 c0	 cmp	 eax, -1073741820	; ffffffffc0000004H
  0005d	75 47		 jne	 SHORT $LN3@get_kernel
  0005f	90		 npad	 1
$LL2@get_kernel:

; 78   : 		{
; 79   : 			VirtualFree(buffer, 0, MEM_RELEASE);

  00060	33 d2		 xor	 edx, edx
  00062	41 b8 00 80 00
	00		 mov	 r8d, 32768		; 00008000H
  00068	49 8b cf	 mov	 rcx, r15
  0006b	ff 15 00 00 00
	00		 call	 QWORD PTR __imp_VirtualFree

; 80   : 			buffer = VirtualAlloc(nullptr, buffer_size, MEM_COMMIT | MEM_RESERVE, PAGE_READWRITE);

  00071	8b 55 b7	 mov	 edx, DWORD PTR buffer_size$[rbp-121]
  00074	33 c9		 xor	 ecx, ecx
  00076	44 8d 49 04	 lea	 r9d, QWORD PTR [rcx+4]
  0007a	41 b8 00 30 00
	00		 mov	 r8d, 12288		; 00003000H
  00080	ff 15 00 00 00
	00		 call	 QWORD PTR __imp_VirtualAlloc
  00086	4c 8b f8	 mov	 r15, rax

; 81   : 			status = NtQuerySystemInformation(

  00089	4c 8d 4d b7	 lea	 r9, QWORD PTR buffer_size$[rbp-121]
  0008d	44 8b 45 b7	 mov	 r8d, DWORD PTR buffer_size$[rbp-121]
  00091	48 8b d0	 mov	 rdx, rax
  00094	b9 0b 00 00 00	 mov	 ecx, 11
  00099	ff 15 00 00 00
	00		 call	 QWORD PTR __imp_NtQuerySystemInformation

; 71   : 			static_cast<SYSTEM_INFORMATION_CLASS>(SystemModuleInformation),
; 72   : 			buffer,
; 73   : 			buffer_size,
; 74   : 			&buffer_size
; 75   : 		);
; 76   : 
; 77   : 		while (status == STATUS_INFO_LENGTH_MISMATCH)

  0009f	3d 04 00 00 c0	 cmp	 eax, -1073741820	; ffffffffc0000004H
  000a4	74 ba		 je	 SHORT $LL2@get_kernel
$LN3@get_kernel:

; 82   : 				static_cast<SYSTEM_INFORMATION_CLASS>(SystemModuleInformation),
; 83   : 				buffer,
; 84   : 				buffer_size,
; 85   : 				&buffer_size
; 86   : 			);
; 87   : 		}
; 88   : 
; 89   : 		if (!NT_SUCCESS(status))

  000a6	85 c0		 test	 eax, eax
  000a8	0f 88 6f 03 00
	00		 js	 $LN506@get_kernel

; 96   : 		for (auto idx = 0u; idx < modules->NumberOfModules; ++idx)

  000ae	45 8b e6	 mov	 r12d, r14d
  000b1	45 39 37	 cmp	 DWORD PTR [r15], r14d
  000b4	0f 86 63 03 00
	00		 jbe	 $LN506@get_kernel
  000ba	66 0f 1f 44 00
	00		 npad	 6
$LL6@get_kernel:

; 97   : 		{
; 98   : 			// find module and then load library it
; 99   : 			const std::string current_module_name =

  000c0	41 8b c4	 mov	 eax, r12d
  000c3	48 69 c8 28 01
	00 00		 imul	 rcx, rax, 296		; 00000128H
  000ca	4a 8d 1c 39	 lea	 rbx, QWORD PTR [rcx+r15]
  000ce	0f b7 43 2e	 movzx	 eax, WORD PTR [rbx+46]
  000d2	48 03 c1	 add	 rax, rcx
  000d5	49 8d 57 30	 lea	 rdx, QWORD PTR [r15+48]
  000d9	48 03 d0	 add	 rdx, rax
; File C:\Program Files (x86)\Microsoft Visual Studio\2019\Community\VC\Tools\MSVC\14.29.30133\include\xstring

; 2313 :         _CONSTEXPR20_CONTAINER _Bxty() noexcept : _Ptr() {} // user-provided, for fancy pointers

  000dc	4c 89 75 07	 mov	 QWORD PTR current_module_name$3[rbp-121], r14

; 4562 :         _My_data._Mysize = 0;

  000e0	4c 89 75 17	 mov	 QWORD PTR current_module_name$3[rbp-105], r14

; 4563 : 
; 4564 : #ifdef __cpp_lib_constexpr_string
; 4565 :         if (_STD is_constant_evaluated()) {
; 4566 :             _My_data._Myres        = _BUF_SIZE; // SSO disabled in constexpr context
; 4567 :             auto& _Al              = _Getal();
; 4568 :             const pointer _New_ptr = _Al.allocate(_BUF_SIZE + 1); // throws
; 4569 :             _My_data._Bx._Ptr      = _New_ptr;
; 4570 : 
; 4571 :             _Elem* const _Raw_new = _Unfancy(_New_ptr);
; 4572 :             _Traits::assign(_Raw_new, _BUF_SIZE + 1, _Elem());
; 4573 :         } else
; 4574 : #endif // __cpp_lib_constexpr_string
; 4575 :         {
; 4576 :             _My_data._Myres = _BUF_SIZE - 1;

  000e4	48 c7 45 1f 0f
	00 00 00	 mov	 QWORD PTR current_module_name$3[rbp-97], 15

; 4577 :             // the _Traits::assign is last so the codegen doesn't think the char write can alias this
; 4578 :             _Traits::assign(_My_data._Bx._Buf[0], _Elem());

  000ec	c6 45 07 00	 mov	 BYTE PTR current_module_name$3[rbp-121], 0

; 401  :             return __builtin_strlen(_First);

  000f0	49 c7 c0 ff ff
	ff ff		 mov	 r8, -1
  000f7	66 0f 1f 84 00
	00 00 00 00	 npad	 9
$LL511@get_kernel:
  00100	49 ff c0	 inc	 r8
  00103	42 80 3c 02 00	 cmp	 BYTE PTR [rdx+r8], 0
  00108	75 f6		 jne	 SHORT $LL511@get_kernel

; 3230 :         return assign(_Ptr, _Convert_size<size_type>(_Traits::length(_Ptr)));

  0010a	48 8d 4d 07	 lea	 rcx, QWORD PTR current_module_name$3[rbp-121]
  0010e	e8 00 00 00 00	 call	 ?assign@?$basic_string@DU?$char_traits@D@std@@V?$allocator@D@2@@std@@QEAAAEAV12@QEBD_K@Z ; std::basic_string<char,std::char_traits<char>,std::allocator<char> >::assign
  00113	90		 npad	 1

; 2272 :         const value_type* _Result = _Bx._Buf;

  00114	48 8d 4d 07	 lea	 rcx, QWORD PTR current_module_name$3[rbp-121]

; 2273 :         if (_Large_string_engaged()) {

  00118	48 83 7d 1f 10	 cmp	 QWORD PTR current_module_name$3[rbp-97], 16
  0011d	48 0f 43 4d 07	 cmovae	 rcx, QWORD PTR current_module_name$3[rbp-121]
; File C:\Users\vin\Downloads\ApexIsAssWithEAC-main\ApexIsAssWithEAC-main\sinmapper\util.hpp

; 105  : 			if (!_stricmp(current_module_name.c_str(), module_name))

  00122	48 8b d7	 mov	 rdx, rdi
  00125	ff 15 00 00 00
	00		 call	 QWORD PTR __imp__stricmp
  0012b	85 c0		 test	 eax, eax
  0012d	0f 85 a3 02 00
	00		 jne	 $LN442@get_kernel

; 106  : 			{
; 107  : 				// had to shoot the tires off of "\\SystemRoot\\"
; 108  : 				std::string full_path = reinterpret_cast<char*>(modules->Modules[idx].FullPathName);

  00133	48 8d 53 30	 lea	 rdx, QWORD PTR [rbx+48]
; File C:\Program Files (x86)\Microsoft Visual Studio\2019\Community\VC\Tools\MSVC\14.29.30133\include\xstring

; 2313 :         _CONSTEXPR20_CONTAINER _Bxty() noexcept : _Ptr() {} // user-provided, for fancy pointers

  00137	4c 89 75 c7	 mov	 QWORD PTR full_path$1[rbp-121], r14

; 4562 :         _My_data._Mysize = 0;

  0013b	4c 89 75 d7	 mov	 QWORD PTR full_path$1[rbp-105], r14

; 4563 : 
; 4564 : #ifdef __cpp_lib_constexpr_string
; 4565 :         if (_STD is_constant_evaluated()) {
; 4566 :             _My_data._Myres        = _BUF_SIZE; // SSO disabled in constexpr context
; 4567 :             auto& _Al              = _Getal();
; 4568 :             const pointer _New_ptr = _Al.allocate(_BUF_SIZE + 1); // throws
; 4569 :             _My_data._Bx._Ptr      = _New_ptr;
; 4570 : 
; 4571 :             _Elem* const _Raw_new = _Unfancy(_New_ptr);
; 4572 :             _Traits::assign(_Raw_new, _BUF_SIZE + 1, _Elem());
; 4573 :         } else
; 4574 : #endif // __cpp_lib_constexpr_string
; 4575 :         {
; 4576 :             _My_data._Myres = _BUF_SIZE - 1;

  0013f	48 c7 45 df 0f
	00 00 00	 mov	 QWORD PTR full_path$1[rbp-97], 15

; 4577 :             // the _Traits::assign is last so the codegen doesn't think the char write can alias this
; 4578 :             _Traits::assign(_My_data._Bx._Buf[0], _Elem());

  00147	88 45 c7	 mov	 BYTE PTR full_path$1[rbp-121], al

; 401  :             return __builtin_strlen(_First);

  0014a	49 c7 c0 ff ff
	ff ff		 mov	 r8, -1
$LL510@get_kernel:
  00151	49 ff c0	 inc	 r8
  00154	42 80 3c 02 00	 cmp	 BYTE PTR [rdx+r8], 0
  00159	75 f6		 jne	 SHORT $LL510@get_kernel

; 3230 :         return assign(_Ptr, _Convert_size<size_type>(_Traits::length(_Ptr)));

  0015b	48 8d 4d c7	 lea	 rcx, QWORD PTR full_path$1[rbp-121]
  0015f	e8 00 00 00 00	 call	 ?assign@?$basic_string@DU?$char_traits@D@std@@V?$allocator@D@2@@std@@QEAAAEAV12@QEBD_K@Z ; std::basic_string<char,std::char_traits<char>,std::allocator<char> >::assign
  00164	90		 npad	 1
; File C:\Users\vin\Downloads\ApexIsAssWithEAC-main\ApexIsAssWithEAC-main\sinmapper\util.hpp

; 109  : 				full_path.replace(

  00165	48 8d 0d 00 00
	00 00		 lea	 rcx, OFFSET FLAT:??_C@_0L@CLNGBNDK@SYSTEMROOT@
  0016c	ff 15 00 00 00
	00		 call	 QWORD PTR __imp_getenv
; File C:\Program Files (x86)\Microsoft Visual Studio\2019\Community\VC\Tools\MSVC\14.29.30133\include\xstring

; 2313 :         _CONSTEXPR20_CONTAINER _Bxty() noexcept : _Ptr() {} // user-provided, for fancy pointers

  00172	4c 89 75 e7	 mov	 QWORD PTR $T2[rbp-121], r14

; 4562 :         _My_data._Mysize = 0;

  00176	4c 89 75 f7	 mov	 QWORD PTR $T2[rbp-105], r14

; 4563 : 
; 4564 : #ifdef __cpp_lib_constexpr_string
; 4565 :         if (_STD is_constant_evaluated()) {
; 4566 :             _My_data._Myres        = _BUF_SIZE; // SSO disabled in constexpr context
; 4567 :             auto& _Al              = _Getal();
; 4568 :             const pointer _New_ptr = _Al.allocate(_BUF_SIZE + 1); // throws
; 4569 :             _My_data._Bx._Ptr      = _New_ptr;
; 4570 : 
; 4571 :             _Elem* const _Raw_new = _Unfancy(_New_ptr);
; 4572 :             _Traits::assign(_Raw_new, _BUF_SIZE + 1, _Elem());
; 4573 :         } else
; 4574 : #endif // __cpp_lib_constexpr_string
; 4575 :         {
; 4576 :             _My_data._Myres = _BUF_SIZE - 1;

  0017a	48 c7 45 ff 0f
	00 00 00	 mov	 QWORD PTR $T2[rbp-97], 15

; 4577 :             // the _Traits::assign is last so the codegen doesn't think the char write can alias this
; 4578 :             _Traits::assign(_My_data._Bx._Buf[0], _Elem());

  00182	c6 45 e7 00	 mov	 BYTE PTR $T2[rbp-121], 0

; 401  :             return __builtin_strlen(_First);

  00186	49 c7 c0 ff ff
	ff ff		 mov	 r8, -1
  0018d	0f 1f 00	 npad	 3
$LL509@get_kernel:
  00190	49 ff c0	 inc	 r8
  00193	42 80 3c 00 00	 cmp	 BYTE PTR [rax+r8], 0
  00198	75 f6		 jne	 SHORT $LL509@get_kernel

; 3230 :         return assign(_Ptr, _Convert_size<size_type>(_Traits::length(_Ptr)));

  0019a	48 8b d0	 mov	 rdx, rax
  0019d	48 8d 4d e7	 lea	 rcx, QWORD PTR $T2[rbp-121]
  001a1	e8 00 00 00 00	 call	 ?assign@?$basic_string@DU?$char_traits@D@std@@V?$allocator@D@2@@std@@QEAAAEAV12@QEBD_K@Z ; std::basic_string<char,std::char_traits<char>,std::allocator<char> >::assign
  001a6	90		 npad	 1

; 3120 :         const size_type _Old_size = _Mypair._Myval2._Mysize;

  001a7	48 8b 4d f7	 mov	 rcx, QWORD PTR $T2[rbp-105]
  001ab	48 8b 55 ff	 mov	 rdx, QWORD PTR $T2[rbp-97]
  001af	48 8b c2	 mov	 rax, rdx
  001b2	48 2b c1	 sub	 rax, rcx

; 3121 :         if (_Count <= _Mypair._Myval2._Myres - _Old_size) {

  001b5	48 83 f8 01	 cmp	 rax, 1
  001b9	72 21		 jb	 SHORT $LN86@get_kernel

; 3122 :             _Mypair._Myval2._Mysize = _Old_size + _Count;

  001bb	48 8d 41 01	 lea	 rax, QWORD PTR [rcx+1]
  001bf	48 89 45 f7	 mov	 QWORD PTR $T2[rbp-105], rax

; 2263 :         value_type* _Result = _Bx._Buf;

  001c3	48 8d 45 e7	 lea	 rax, QWORD PTR $T2[rbp-121]

; 2264 :         if (_Large_string_engaged()) {

  001c7	48 83 fa 10	 cmp	 rdx, 16
  001cb	48 0f 43 45 e7	 cmovae	 rax, QWORD PTR $T2[rbp-121]

; 121  :         _CSTD memmove(_First1, _First2, _Count * sizeof(_Elem));

  001d0	66 c7 04 08 5c
	00		 mov	 WORD PTR [rax+rcx], 92	; 0000005cH

; 3126 :             return *this;

  001d6	48 8d 75 e7	 lea	 rsi, QWORD PTR $T2[rbp-121]
  001da	eb 21		 jmp	 SHORT $LN85@get_kernel
$LN86@get_kernel:

; 3127 :         }
; 3128 : 
; 3129 :         return _Reallocate_grow_by(

  001dc	48 c7 44 24 20
	01 00 00 00	 mov	 QWORD PTR [rsp+32], 1
  001e5	4c 8d 0d 00 00
	00 00		 lea	 r9, OFFSET FLAT:??_C@_01KICIPPFI@?2@
  001ec	ba 01 00 00 00	 mov	 edx, 1
  001f1	48 8d 4d e7	 lea	 rcx, QWORD PTR $T2[rbp-121]
  001f5	e8 00 00 00 00	 call	 ??$_Reallocate_grow_by@V<lambda_65e615be2a453ca0576c979606f46740>@@PEBD_K@?$basic_string@DU?$char_traits@D@std@@V?$allocator@D@2@@std@@AEAAAEAV01@_KV<lambda_65e615be2a453ca0576c979606f46740>@@PEBD_K@Z ; std::basic_string<char,std::char_traits<char>,std::allocator<char> >::_Reallocate_grow_by<<lambda_65e615be2a453ca0576c979606f46740>,char const *,unsigned __int64>
  001fa	48 8b f0	 mov	 rsi, rax
$LN85@get_kernel:

; 2272 :         const value_type* _Result = _Bx._Buf;

  001fd	48 8d 7d c7	 lea	 rdi, QWORD PTR full_path$1[rbp-121]

; 2273 :         if (_Large_string_engaged()) {

  00201	48 83 7d df 10	 cmp	 QWORD PTR full_path$1[rbp-97], 16
  00206	48 0f 43 7d c7	 cmovae	 rdi, QWORD PTR full_path$1[rbp-121]

; 600  :     if (_Needle_size > _Hay_size || _Start_at > _Hay_size - _Needle_size) {

  0020b	48 8b 45 d7	 mov	 rax, QWORD PTR full_path$1[rbp-105]
  0020f	48 83 f8 0c	 cmp	 rax, 12
  00213	72 6a		 jb	 SHORT $LN109@get_kernel

; 601  :         // xpos cannot exist, report failure
; 602  :         // N4659 24.3.2.7.2 [string.find]/1 says:
; 603  :         // 1. _Start_at <= xpos
; 604  :         // 2. xpos + _Needle_size <= _Hay_size;
; 605  :         // therefore:
; 606  :         // 3. _Needle_size <= _Hay_size (by 2) (checked above)
; 607  :         // 4. _Start_at + _Needle_size <= _Hay_size (substitute 1 into 2)
; 608  :         // 5. _Start_at <= _Hay_size - _Needle_size (4, move _Needle_size to other side) (also checked above)
; 609  :         return static_cast<size_t>(-1);
; 610  :     }
; 611  : 
; 612  :     if (_Needle_size == 0) { // empty string always matches if xpos is possible
; 613  :         return _Start_at;
; 614  :     }
; 615  : 
; 616  :     const auto _Possible_matches_end = _Haystack + (_Hay_size - _Needle_size) + 1;

  00215	4c 8d 34 38	 lea	 r14, QWORD PTR [rax+rdi]

; 618  :         _Match_try = _Traits::find(_Match_try, static_cast<size_t>(_Possible_matches_end - _Match_try), *_Needle);

  00219	4d 8d 46 f5	 lea	 r8, QWORD PTR [r14-11]
  0021d	4c 2b c7	 sub	 r8, rdi

; 422  :             return __builtin_char_memchr(_First, _Ch, _Count);

  00220	ba 5c 00 00 00	 mov	 edx, 92			; 0000005cH
  00225	48 8b cf	 mov	 rcx, rdi
  00228	e8 00 00 00 00	 call	 memchr
  0022d	48 8b d8	 mov	 rbx, rax

; 619  :         if (!_Match_try) { // didn't find first character; report failure

  00230	48 85 c0	 test	 rax, rax
  00233	74 47		 je	 SHORT $LN488@get_kernel
  00235	66 66 66 0f 1f
	84 00 00 00 00
	00		 npad	 11
$LL107@get_kernel:

; 382  :         return __builtin_memcmp(_First1, _First2, _Count);

  00240	41 b8 0c 00 00
	00		 mov	 r8d, 12
  00246	48 8d 15 00 00
	00 00		 lea	 rdx, OFFSET FLAT:??_C@_0N@BDPNIACE@?2SystemRoot?2@
  0024d	48 8b cb	 mov	 rcx, rbx
  00250	e8 00 00 00 00	 call	 memcmp

; 623  :         if (_Traits::compare(_Match_try, _Needle, _Needle_size) == 0) { // found match

  00255	85 c0		 test	 eax, eax
  00257	0f 84 00 02 00
	00		 je	 $LN489@get_kernel

; 617  :     for (auto _Match_try = _Haystack + _Start_at;; ++_Match_try) {

  0025d	48 ff c3	 inc	 rbx

; 618  :         _Match_try = _Traits::find(_Match_try, static_cast<size_t>(_Possible_matches_end - _Match_try), *_Needle);

  00260	4d 8d 46 f5	 lea	 r8, QWORD PTR [r14-11]
  00264	4c 2b c3	 sub	 r8, rbx

; 422  :             return __builtin_char_memchr(_First, _Ch, _Count);

  00267	ba 5c 00 00 00	 mov	 edx, 92			; 0000005cH
  0026c	48 8b cb	 mov	 rcx, rbx
  0026f	e8 00 00 00 00	 call	 memchr
  00274	48 8b d8	 mov	 rbx, rax

; 619  :         if (!_Match_try) { // didn't find first character; report failure

  00277	48 85 c0	 test	 rax, rax
  0027a	75 c4		 jne	 SHORT $LL107@get_kernel
$LN488@get_kernel:

; 620  :             return static_cast<size_t>(-1);

  0027c	45 33 f6	 xor	 r14d, r14d
$LN109@get_kernel:

; 3471 :         return replace(_Off, _Nx, _Right._Mypair._Myval2._Myptr(), _Right._Mypair._Myval2._Mysize);

  0027f	48 c7 c3 ff ff
	ff ff		 mov	 rbx, -1
$LN106@get_kernel:
  00286	48 8b 46 10	 mov	 rax, QWORD PTR [rsi+16]

; 2273 :         if (_Large_string_engaged()) {

  0028a	48 83 7e 18 10	 cmp	 QWORD PTR [rsi+24], 16
  0028f	72 03		 jb	 SHORT $LN121@get_kernel

; 2274 :             _Result = _Unfancy(_Bx._Ptr);

  00291	48 8b 36	 mov	 rsi, QWORD PTR [rsi]
$LN121@get_kernel:

; 3471 :         return replace(_Off, _Nx, _Right._Mypair._Myval2._Myptr(), _Right._Mypair._Myval2._Mysize);

  00294	48 89 44 24 20	 mov	 QWORD PTR [rsp+32], rax
  00299	4c 8b ce	 mov	 r9, rsi
  0029c	48 8b d3	 mov	 rdx, rbx
  0029f	48 8d 4d c7	 lea	 rcx, QWORD PTR full_path$1[rbp-121]
  002a3	e8 00 00 00 00	 call	 ?replace@?$basic_string@DU?$char_traits@D@std@@V?$allocator@D@2@@std@@QEAAAEAV12@_K_KQEBD0@Z ; std::basic_string<char,std::char_traits<char>,std::allocator<char> >::replace
  002a8	90		 npad	 1

; 4584 :         if (_Mypair._Myval2._Large_string_engaged()) {

  002a9	48 8b 55 ff	 mov	 rdx, QWORD PTR $T2[rbp-97]
  002ad	48 83 fa 10	 cmp	 rdx, 16
  002b1	72 31		 jb	 SHORT $LN137@get_kernel

; 4585 :             const pointer _Ptr = _Mypair._Myval2._Bx._Ptr;
; 4586 :             auto& _Al          = _Getal();
; 4587 :             _Destroy_in_place(_Mypair._Myval2._Bx._Ptr);
; 4588 :             _Al.deallocate(_Ptr, _Mypair._Myval2._Myres + 1);

  002b3	48 ff c2	 inc	 rdx
; File C:\Program Files (x86)\Microsoft Visual Studio\2019\Community\VC\Tools\MSVC\14.29.30133\include\xmemory

; 797  :         _Deallocate<_New_alignof<_Ty>>(_Ptr, sizeof(_Ty) * _Count);

  002b6	48 8b 4d e7	 mov	 rcx, QWORD PTR $T2[rbp-121]
  002ba	48 8b c1	 mov	 rax, rcx

; 251  :         if (_Bytes >= _Big_allocation_threshold) { // boost the alignment of big allocations to help autovectorization

  002bd	48 81 fa 00 10
	00 00		 cmp	 rdx, 4096		; 00001000H
  002c4	72 19		 jb	 SHORT $LN147@get_kernel

; 147  :     _Bytes += _Non_user_size;

  002c6	48 83 c2 27	 add	 rdx, 39			; 00000027H

; 148  : 
; 149  :     const uintptr_t* const _Ptr_user = reinterpret_cast<uintptr_t*>(_Ptr);
; 150  :     const uintptr_t _Ptr_container   = _Ptr_user[-1];

  002ca	48 8b 49 f8	 mov	 rcx, QWORD PTR [rcx-8]
  002ce	48 2b c1	 sub	 rax, rcx

; 164  :     _STL_VERIFY(_Back_shift >= _Min_back_shift && _Back_shift <= _Non_user_size, "invalid argument");

  002d1	48 83 c0 f8	 add	 rax, -8
  002d5	48 83 f8 1f	 cmp	 rax, 31
  002d9	0f 87 89 01 00
	00		 ja	 $LN144@get_kernel
$LN147@get_kernel:

; 255  :         ::operator delete(_Ptr, _Bytes);

  002df	e8 00 00 00 00	 call	 ??3@YAXPEAX_K@Z		; operator delete
$LN137@get_kernel:
; File C:\Program Files (x86)\Microsoft Visual Studio\2019\Community\VC\Tools\MSVC\14.29.30133\include\xstring

; 2272 :         const value_type* _Result = _Bx._Buf;

  002e4	48 8d 4d c7	 lea	 rcx, QWORD PTR full_path$1[rbp-121]

; 2273 :         if (_Large_string_engaged()) {

  002e8	48 83 7d df 10	 cmp	 QWORD PTR full_path$1[rbp-97], 16
  002ed	48 0f 43 4d c7	 cmovae	 rcx, QWORD PTR full_path$1[rbp-121]
; File C:\Users\vin\Downloads\ApexIsAssWithEAC-main\ApexIsAssWithEAC-main\sinmapper\util.hpp

; 115  : 				const auto module_base =

  002f2	33 d2		 xor	 edx, edx
  002f4	44 8d 42 01	 lea	 r8d, QWORD PTR [rdx+1]
  002f8	ff 15 00 00 00
	00		 call	 QWORD PTR __imp_LoadLibraryExA
  002fe	4c 8b d8	 mov	 r11, rax

; 116  : 					LoadLibraryEx(
; 117  : 						full_path.c_str(),
; 118  : 						NULL,
; 119  : 						DONT_RESOLVE_DLL_REFERENCES
; 120  : 					);
; 121  : 
; 122  : 				PIMAGE_DOS_HEADER p_idh;
; 123  : 				PIMAGE_NT_HEADERS p_inh;
; 124  : 				PIMAGE_EXPORT_DIRECTORY p_ied;
; 125  : 
; 126  : 				PDWORD addr, name;
; 127  : 				PWORD ordinal;
; 128  : 
; 129  : 				p_idh = (PIMAGE_DOS_HEADER)module_base;
; 130  : 				if (p_idh->e_magic != IMAGE_DOS_SIGNATURE)

  00301	b8 4d 5a 00 00	 mov	 eax, 23117		; 00005a4dH
  00306	66 41 39 03	 cmp	 WORD PTR [r11], ax
  0030a	0f 85 8b 01 00
	00		 jne	 $LN491@get_kernel

; 131  : 					return NULL;
; 132  : 
; 133  : 				p_inh = (PIMAGE_NT_HEADERS)((LPBYTE)module_base + p_idh->e_lfanew);

  00310	49 63 4b 3c	 movsxd	 rcx, DWORD PTR [r11+60]

; 134  : 				if (p_inh->Signature != IMAGE_NT_SIGNATURE)

  00314	42 81 3c 19 50
	45 00 00	 cmp	 DWORD PTR [rcx+r11], 17744 ; 00004550H
  0031c	0f 85 79 01 00
	00		 jne	 $LN491@get_kernel

; 135  : 					return NULL;
; 136  : 
; 137  : 				if (p_inh->OptionalHeader.DataDirectory[IMAGE_DIRECTORY_ENTRY_EXPORT].VirtualAddress == 0)

  00322	42 8b 94 19 88
	00 00 00	 mov	 edx, DWORD PTR [rcx+r11+136]
  0032a	85 d2		 test	 edx, edx
  0032c	0f 84 69 01 00
	00		 je	 $LN491@get_kernel

; 138  : 					return NULL;
; 139  : 
; 140  : 				p_ied = (PIMAGE_EXPORT_DIRECTORY)((LPBYTE)module_base +
; 141  : 					p_inh->OptionalHeader.DataDirectory[IMAGE_DIRECTORY_ENTRY_EXPORT].VirtualAddress);
; 142  : 
; 143  : 				addr = (PDWORD)((LPBYTE)module_base + p_ied->AddressOfFunctions);

  00332	42 8b 5c 1a 1c	 mov	 ebx, DWORD PTR [rdx+r11+28]
  00337	49 8d 3c 1b	 lea	 rdi, QWORD PTR [r11+rbx]

; 144  : 				name = (PDWORD)((LPBYTE)module_base + p_ied->AddressOfNames);

  0033b	46 8b 4c 1a 20	 mov	 r9d, DWORD PTR [rdx+r11+32]
  00340	4d 03 cb	 add	 r9, r11

; 145  : 				ordinal = (PWORD)((LPBYTE)module_base + p_ied->AddressOfNameOrdinals);

  00343	42 8b 74 1a 24	 mov	 esi, DWORD PTR [rdx+r11+36]
  00348	49 03 f3	 add	 rsi, r11

; 146  : 
; 147  : 				// find exported function
; 148  : 				for (auto i = 0; i < p_ied->AddressOfFunctions; i++)

  0034b	45 8b d6	 mov	 r10d, r14d
  0034e	85 db		 test	 ebx, ebx
  00350	74 45		 je	 SHORT $LN8@get_kernel
  00352	0f 1f 40 00 66
	66 0f 1f 84 00
	00 00 00 00	 npad	 14
$LL9@get_kernel:

; 149  : 					if (!strcmp(export_name, (char*)module_base + name[i]))

  00360	45 8b 01	 mov	 r8d, DWORD PTR [r9]
  00363	4d 03 c3	 add	 r8, r11
  00366	49 8b c5	 mov	 rax, r13
  00369	4d 2b c5	 sub	 r8, r13
  0036c	0f 1f 40 00	 npad	 4
$LL507@get_kernel:
  00370	0f b6 10	 movzx	 edx, BYTE PTR [rax]
  00373	42 0f b6 0c 00	 movzx	 ecx, BYTE PTR [rax+r8]
  00378	2b d1		 sub	 edx, ecx
  0037a	75 07		 jne	 SHORT $LN508@get_kernel
  0037c	48 ff c0	 inc	 rax
  0037f	85 c9		 test	 ecx, ecx
  00381	75 ed		 jne	 SHORT $LL507@get_kernel
$LN508@get_kernel:
  00383	85 d2		 test	 edx, edx
  00385	0f 84 e4 00 00
	00		 je	 $LN490@get_kernel

; 146  : 
; 147  : 				// find exported function
; 148  : 				for (auto i = 0; i < p_ied->AddressOfFunctions; i++)

  0038b	41 ff c2	 inc	 r10d
  0038e	49 83 c1 04	 add	 r9, 4
  00392	44 3b d3	 cmp	 r10d, ebx
  00395	72 c9		 jb	 SHORT $LL9@get_kernel
$LN8@get_kernel:
; File C:\Program Files (x86)\Microsoft Visual Studio\2019\Community\VC\Tools\MSVC\14.29.30133\include\xstring

; 4584 :         if (_Mypair._Myval2._Large_string_engaged()) {

  00397	48 8b 55 df	 mov	 rdx, QWORD PTR full_path$1[rbp-97]
  0039b	48 83 fa 10	 cmp	 rdx, 16
  0039f	72 31		 jb	 SHORT $LN512@get_kernel

; 4585 :             const pointer _Ptr = _Mypair._Myval2._Bx._Ptr;
; 4586 :             auto& _Al          = _Getal();
; 4587 :             _Destroy_in_place(_Mypair._Myval2._Bx._Ptr);
; 4588 :             _Al.deallocate(_Ptr, _Mypair._Myval2._Myres + 1);

  003a1	48 ff c2	 inc	 rdx
; File C:\Program Files (x86)\Microsoft Visual Studio\2019\Community\VC\Tools\MSVC\14.29.30133\include\xmemory

; 797  :         _Deallocate<_New_alignof<_Ty>>(_Ptr, sizeof(_Ty) * _Count);

  003a4	48 8b 4d c7	 mov	 rcx, QWORD PTR full_path$1[rbp-121]
  003a8	48 8b c1	 mov	 rax, rcx

; 251  :         if (_Bytes >= _Big_allocation_threshold) { // boost the alignment of big allocations to help autovectorization

  003ab	48 81 fa 00 10
	00 00		 cmp	 rdx, 4096		; 00001000H
  003b2	72 19		 jb	 SHORT $LN452@get_kernel

; 147  :     _Bytes += _Non_user_size;

  003b4	48 83 c2 27	 add	 rdx, 39			; 00000027H

; 148  : 
; 149  :     const uintptr_t* const _Ptr_user = reinterpret_cast<uintptr_t*>(_Ptr);
; 150  :     const uintptr_t _Ptr_container   = _Ptr_user[-1];

  003b8	48 8b 49 f8	 mov	 rcx, QWORD PTR [rcx-8]
  003bc	48 2b c1	 sub	 rax, rcx

; 164  :     _STL_VERIFY(_Back_shift >= _Min_back_shift && _Back_shift <= _Non_user_size, "invalid argument");

  003bf	48 83 c0 f8	 add	 rax, -8
  003c3	48 83 f8 1f	 cmp	 rax, 31
  003c7	0f 87 03 01 00
	00		 ja	 $LN449@get_kernel
$LN452@get_kernel:

; 255  :         ::operator delete(_Ptr, _Bytes);

  003cd	e8 00 00 00 00	 call	 ??3@YAXPEAX_K@Z		; operator delete
$LN512@get_kernel:
; File C:\Users\vin\Downloads\ApexIsAssWithEAC-main\ApexIsAssWithEAC-main\sinmapper\util.hpp

; 165  : 		}

  003d2	48 8b 7d bf	 mov	 rdi, QWORD PTR module_name$GSCopy$1$[rbp-121]
$LN442@get_kernel:
; File C:\Program Files (x86)\Microsoft Visual Studio\2019\Community\VC\Tools\MSVC\14.29.30133\include\xstring

; 2286 :         return _BUF_SIZE <= _Myres;

  003d6	48 8b 55 1f	 mov	 rdx, QWORD PTR current_module_name$3[rbp-97]
  003da	48 83 fa 10	 cmp	 rdx, 16

; 4584 :         if (_Mypair._Myval2._Large_string_engaged()) {

  003de	72 31		 jb	 SHORT $LN469@get_kernel

; 4585 :             const pointer _Ptr = _Mypair._Myval2._Bx._Ptr;
; 4586 :             auto& _Al          = _Getal();
; 4587 :             _Destroy_in_place(_Mypair._Myval2._Bx._Ptr);
; 4588 :             _Al.deallocate(_Ptr, _Mypair._Myval2._Myres + 1);

  003e0	48 ff c2	 inc	 rdx
